
test/034.add.riscv:     file format elf32-littleriscv


Disassembly of section .text:

000001d8 <_start>:
 1d8:	00500137          	lui	sp,0x500
 1dc:	00c000ef          	jal	1e8 <main>
 1e0:	200002b7          	lui	t0,0x20000
 1e4:	00100073          	ebreak

000001e8 <main>:
 1e8:	fb010113          	add	sp,sp,-80 # 4fffb0 <__BSS_END__+0x4fceb0>
 1ec:	04812623          	sw	s0,76(sp)
 1f0:	05010413          	add	s0,sp,80
 1f4:	fff00713          	li	a4,-1
 1f8:	00000793          	li	a5,0
 1fc:	fee42423          	sw	a4,-24(s0)
 200:	fef42623          	sw	a5,-20(s0)
 204:	00000713          	li	a4,0
 208:	fff00793          	li	a5,-1
 20c:	fee42023          	sw	a4,-32(s0)
 210:	fef42223          	sw	a5,-28(s0)
 214:	fe842603          	lw	a2,-24(s0)
 218:	fec42683          	lw	a3,-20(s0)
 21c:	fe042503          	lw	a0,-32(s0)
 220:	fe442583          	lw	a1,-28(s0)
 224:	00a60733          	add	a4,a2,a0
 228:	00070813          	mv	a6,a4
 22c:	00c83833          	sltu	a6,a6,a2
 230:	00b687b3          	add	a5,a3,a1
 234:	00f806b3          	add	a3,a6,a5
 238:	00068793          	mv	a5,a3
 23c:	fce42c23          	sw	a4,-40(s0)
 240:	fcf42e23          	sw	a5,-36(s0)
 244:	00000313          	li	t1,0
 248:	00000393          	li	t2,0
 24c:	fc642c23          	sw	t1,-40(s0)
 250:	fc742e23          	sw	t2,-36(s0)
 254:	fec00713          	li	a4,-20
 258:	fff00793          	li	a5,-1
 25c:	fee42423          	sw	a4,-24(s0)
 260:	fef42623          	sw	a5,-20(s0)
 264:	fe200713          	li	a4,-30
 268:	fff00793          	li	a5,-1
 26c:	fee42023          	sw	a4,-32(s0)
 270:	fef42223          	sw	a5,-28(s0)
 274:	fe842603          	lw	a2,-24(s0)
 278:	fec42683          	lw	a3,-20(s0)
 27c:	fe042503          	lw	a0,-32(s0)
 280:	fe442583          	lw	a1,-28(s0)
 284:	00a60733          	add	a4,a2,a0
 288:	00070813          	mv	a6,a4
 28c:	00c83833          	sltu	a6,a6,a2
 290:	00b687b3          	add	a5,a3,a1
 294:	00f806b3          	add	a3,a6,a5
 298:	00068793          	mv	a5,a3
 29c:	fce42c23          	sw	a4,-40(s0)
 2a0:	fcf42e23          	sw	a5,-36(s0)
 2a4:	fc642c23          	sw	t1,-40(s0)
 2a8:	fc742e23          	sw	t2,-36(s0)
 2ac:	ffe00713          	li	a4,-2
 2b0:	fff00793          	li	a5,-1
 2b4:	fee42423          	sw	a4,-24(s0)
 2b8:	fef42623          	sw	a5,-20(s0)
 2bc:	00200713          	li	a4,2
 2c0:	00000793          	li	a5,0
 2c4:	fee42023          	sw	a4,-32(s0)
 2c8:	fef42223          	sw	a5,-28(s0)
 2cc:	fe842603          	lw	a2,-24(s0)
 2d0:	fec42683          	lw	a3,-20(s0)
 2d4:	fe042503          	lw	a0,-32(s0)
 2d8:	fe442583          	lw	a1,-28(s0)
 2dc:	00a60733          	add	a4,a2,a0
 2e0:	00070813          	mv	a6,a4
 2e4:	00c83833          	sltu	a6,a6,a2
 2e8:	00b687b3          	add	a5,a3,a1
 2ec:	00f806b3          	add	a3,a6,a5
 2f0:	00068793          	mv	a5,a3
 2f4:	fce42c23          	sw	a4,-40(s0)
 2f8:	fcf42e23          	sw	a5,-36(s0)
 2fc:	fc642c23          	sw	t1,-40(s0)
 300:	fc742e23          	sw	t2,-36(s0)
 304:	00a00713          	li	a4,10
 308:	00000793          	li	a5,0
 30c:	fee42423          	sw	a4,-24(s0)
 310:	fef42623          	sw	a5,-20(s0)
 314:	ffb00713          	li	a4,-5
 318:	fff00793          	li	a5,-1
 31c:	fee42023          	sw	a4,-32(s0)
 320:	fef42223          	sw	a5,-28(s0)
 324:	fe842603          	lw	a2,-24(s0)
 328:	fec42683          	lw	a3,-20(s0)
 32c:	fe042503          	lw	a0,-32(s0)
 330:	fe442583          	lw	a1,-28(s0)
 334:	00a60733          	add	a4,a2,a0
 338:	00070813          	mv	a6,a4
 33c:	00c83833          	sltu	a6,a6,a2
 340:	00b687b3          	add	a5,a3,a1
 344:	00f806b3          	add	a3,a6,a5
 348:	00068793          	mv	a5,a3
 34c:	fce42c23          	sw	a4,-40(s0)
 350:	fcf42e23          	sw	a5,-36(s0)
 354:	fc642c23          	sw	t1,-40(s0)
 358:	fc742e23          	sw	t2,-36(s0)
 35c:	00500713          	li	a4,5
 360:	00000793          	li	a5,0
 364:	fee42423          	sw	a4,-24(s0)
 368:	fef42623          	sw	a5,-20(s0)
 36c:	ff600713          	li	a4,-10
 370:	fff00793          	li	a5,-1
 374:	fee42023          	sw	a4,-32(s0)
 378:	fef42223          	sw	a5,-28(s0)
 37c:	fe842603          	lw	a2,-24(s0)
 380:	fec42683          	lw	a3,-20(s0)
 384:	fe042503          	lw	a0,-32(s0)
 388:	fe442583          	lw	a1,-28(s0)
 38c:	00a60733          	add	a4,a2,a0
 390:	00070813          	mv	a6,a4
 394:	00c83833          	sltu	a6,a6,a2
 398:	00b687b3          	add	a5,a3,a1
 39c:	00f806b3          	add	a3,a6,a5
 3a0:	00068793          	mv	a5,a3
 3a4:	fce42c23          	sw	a4,-40(s0)
 3a8:	fcf42e23          	sw	a5,-36(s0)
 3ac:	fc642c23          	sw	t1,-40(s0)
 3b0:	fc742e23          	sw	t2,-36(s0)
 3b4:	00000797          	auipc	a5,0x0
 3b8:	7a478793          	add	a5,a5,1956 # b58 <main+0x970>
 3bc:	0007a703          	lw	a4,0(a5)
 3c0:	0047a783          	lw	a5,4(a5)
 3c4:	fee42423          	sw	a4,-24(s0)
 3c8:	fef42623          	sw	a5,-20(s0)
 3cc:	00000797          	auipc	a5,0x0
 3d0:	79478793          	add	a5,a5,1940 # b60 <main+0x978>
 3d4:	0007a703          	lw	a4,0(a5)
 3d8:	0047a783          	lw	a5,4(a5)
 3dc:	fee42023          	sw	a4,-32(s0)
 3e0:	fef42223          	sw	a5,-28(s0)
 3e4:	fe842603          	lw	a2,-24(s0)
 3e8:	fec42683          	lw	a3,-20(s0)
 3ec:	fe042503          	lw	a0,-32(s0)
 3f0:	fe442583          	lw	a1,-28(s0)
 3f4:	00a60733          	add	a4,a2,a0
 3f8:	00070813          	mv	a6,a4
 3fc:	00c83833          	sltu	a6,a6,a2
 400:	00b687b3          	add	a5,a3,a1
 404:	00f806b3          	add	a3,a6,a5
 408:	00068793          	mv	a5,a3
 40c:	fce42c23          	sw	a4,-40(s0)
 410:	fcf42e23          	sw	a5,-36(s0)
 414:	fc642c23          	sw	t1,-40(s0)
 418:	fc742e23          	sw	t2,-36(s0)
 41c:	00000797          	auipc	a5,0x0
 420:	74c78793          	add	a5,a5,1868 # b68 <main+0x980>
 424:	0007a703          	lw	a4,0(a5)
 428:	0047a783          	lw	a5,4(a5)
 42c:	fee42423          	sw	a4,-24(s0)
 430:	fef42623          	sw	a5,-20(s0)
 434:	00000797          	auipc	a5,0x0
 438:	73c78793          	add	a5,a5,1852 # b70 <main+0x988>
 43c:	0007a703          	lw	a4,0(a5)
 440:	0047a783          	lw	a5,4(a5)
 444:	fee42023          	sw	a4,-32(s0)
 448:	fef42223          	sw	a5,-28(s0)
 44c:	fe842603          	lw	a2,-24(s0)
 450:	fec42683          	lw	a3,-20(s0)
 454:	fe042503          	lw	a0,-32(s0)
 458:	fe442583          	lw	a1,-28(s0)
 45c:	00a60733          	add	a4,a2,a0
 460:	00070813          	mv	a6,a4
 464:	00c83833          	sltu	a6,a6,a2
 468:	00b687b3          	add	a5,a3,a1
 46c:	00f806b3          	add	a3,a6,a5
 470:	00068793          	mv	a5,a3
 474:	fce42c23          	sw	a4,-40(s0)
 478:	fcf42e23          	sw	a5,-36(s0)
 47c:	fc642c23          	sw	t1,-40(s0)
 480:	fc742e23          	sw	t2,-36(s0)
 484:	fc642823          	sw	t1,-48(s0)
 488:	fc742a23          	sw	t2,-44(s0)
 48c:	fd042603          	lw	a2,-48(s0)
 490:	fd442683          	lw	a3,-44(s0)
 494:	00100513          	li	a0,1
 498:	00000593          	li	a1,0
 49c:	00a60733          	add	a4,a2,a0
 4a0:	00070813          	mv	a6,a4
 4a4:	00c83833          	sltu	a6,a6,a2
 4a8:	00b687b3          	add	a5,a3,a1
 4ac:	00f806b3          	add	a3,a6,a5
 4b0:	00068793          	mv	a5,a3
 4b4:	fce42823          	sw	a4,-48(s0)
 4b8:	fcf42a23          	sw	a5,-44(s0)
 4bc:	fd042603          	lw	a2,-48(s0)
 4c0:	fd442683          	lw	a3,-44(s0)
 4c4:	00200513          	li	a0,2
 4c8:	00000593          	li	a1,0
 4cc:	00a60733          	add	a4,a2,a0
 4d0:	00070813          	mv	a6,a4
 4d4:	00c83833          	sltu	a6,a6,a2
 4d8:	00b687b3          	add	a5,a3,a1
 4dc:	00f806b3          	add	a3,a6,a5
 4e0:	00068793          	mv	a5,a3
 4e4:	fce42823          	sw	a4,-48(s0)
 4e8:	fcf42a23          	sw	a5,-44(s0)
 4ec:	fd042603          	lw	a2,-48(s0)
 4f0:	fd442683          	lw	a3,-44(s0)
 4f4:	00300513          	li	a0,3
 4f8:	00000593          	li	a1,0
 4fc:	00a60733          	add	a4,a2,a0
 500:	00070813          	mv	a6,a4
 504:	00c83833          	sltu	a6,a6,a2
 508:	00b687b3          	add	a5,a3,a1
 50c:	00f806b3          	add	a3,a6,a5
 510:	00068793          	mv	a5,a3
 514:	fce42823          	sw	a4,-48(s0)
 518:	fcf42a23          	sw	a5,-44(s0)
 51c:	fd042603          	lw	a2,-48(s0)
 520:	fd442683          	lw	a3,-44(s0)
 524:	00400513          	li	a0,4
 528:	00000593          	li	a1,0
 52c:	00a60733          	add	a4,a2,a0
 530:	00070813          	mv	a6,a4
 534:	00c83833          	sltu	a6,a6,a2
 538:	00b687b3          	add	a5,a3,a1
 53c:	00f806b3          	add	a3,a6,a5
 540:	00068793          	mv	a5,a3
 544:	fce42823          	sw	a4,-48(s0)
 548:	fcf42a23          	sw	a5,-44(s0)
 54c:	fd042603          	lw	a2,-48(s0)
 550:	fd442683          	lw	a3,-44(s0)
 554:	00500513          	li	a0,5
 558:	00000593          	li	a1,0
 55c:	00a60733          	add	a4,a2,a0
 560:	00070813          	mv	a6,a4
 564:	00c83833          	sltu	a6,a6,a2
 568:	00b687b3          	add	a5,a3,a1
 56c:	00f806b3          	add	a3,a6,a5
 570:	00068793          	mv	a5,a3
 574:	fce42823          	sw	a4,-48(s0)
 578:	fcf42a23          	sw	a5,-44(s0)
 57c:	fc642823          	sw	t1,-48(s0)
 580:	fc742a23          	sw	t2,-44(s0)
 584:	fff00713          	li	a4,-1
 588:	00000793          	li	a5,0
 58c:	fce42423          	sw	a4,-56(s0)
 590:	fcf42623          	sw	a5,-52(s0)
 594:	00000713          	li	a4,0
 598:	fff00793          	li	a5,-1
 59c:	fce42023          	sw	a4,-64(s0)
 5a0:	fcf42223          	sw	a5,-60(s0)
 5a4:	fc842603          	lw	a2,-56(s0)
 5a8:	fcc42683          	lw	a3,-52(s0)
 5ac:	fc042503          	lw	a0,-64(s0)
 5b0:	fc442583          	lw	a1,-60(s0)
 5b4:	00a60733          	add	a4,a2,a0
 5b8:	00070813          	mv	a6,a4
 5bc:	00c83833          	sltu	a6,a6,a2
 5c0:	00b687b3          	add	a5,a3,a1
 5c4:	00f806b3          	add	a3,a6,a5
 5c8:	00068793          	mv	a5,a3
 5cc:	fae42c23          	sw	a4,-72(s0)
 5d0:	faf42e23          	sw	a5,-68(s0)
 5d4:	fa642c23          	sw	t1,-72(s0)
 5d8:	fa742e23          	sw	t2,-68(s0)
 5dc:	fec00713          	li	a4,-20
 5e0:	fff00793          	li	a5,-1
 5e4:	fce42423          	sw	a4,-56(s0)
 5e8:	fcf42623          	sw	a5,-52(s0)
 5ec:	fe200713          	li	a4,-30
 5f0:	fff00793          	li	a5,-1
 5f4:	fce42023          	sw	a4,-64(s0)
 5f8:	fcf42223          	sw	a5,-60(s0)
 5fc:	fc842603          	lw	a2,-56(s0)
 600:	fcc42683          	lw	a3,-52(s0)
 604:	fc042503          	lw	a0,-64(s0)
 608:	fc442583          	lw	a1,-60(s0)
 60c:	00a60733          	add	a4,a2,a0
 610:	00070813          	mv	a6,a4
 614:	00c83833          	sltu	a6,a6,a2
 618:	00b687b3          	add	a5,a3,a1
 61c:	00f806b3          	add	a3,a6,a5
 620:	00068793          	mv	a5,a3
 624:	fae42c23          	sw	a4,-72(s0)
 628:	faf42e23          	sw	a5,-68(s0)
 62c:	fa642c23          	sw	t1,-72(s0)
 630:	fa742e23          	sw	t2,-68(s0)
 634:	ffe00713          	li	a4,-2
 638:	fff00793          	li	a5,-1
 63c:	fce42423          	sw	a4,-56(s0)
 640:	fcf42623          	sw	a5,-52(s0)
 644:	00200713          	li	a4,2
 648:	00000793          	li	a5,0
 64c:	fce42023          	sw	a4,-64(s0)
 650:	fcf42223          	sw	a5,-60(s0)
 654:	fc842603          	lw	a2,-56(s0)
 658:	fcc42683          	lw	a3,-52(s0)
 65c:	fc042503          	lw	a0,-64(s0)
 660:	fc442583          	lw	a1,-60(s0)
 664:	00a60733          	add	a4,a2,a0
 668:	00070813          	mv	a6,a4
 66c:	00c83833          	sltu	a6,a6,a2
 670:	00b687b3          	add	a5,a3,a1
 674:	00f806b3          	add	a3,a6,a5
 678:	00068793          	mv	a5,a3
 67c:	fae42c23          	sw	a4,-72(s0)
 680:	faf42e23          	sw	a5,-68(s0)
 684:	fa642c23          	sw	t1,-72(s0)
 688:	fa742e23          	sw	t2,-68(s0)
 68c:	00a00713          	li	a4,10
 690:	00000793          	li	a5,0
 694:	fce42423          	sw	a4,-56(s0)
 698:	fcf42623          	sw	a5,-52(s0)
 69c:	ffb00713          	li	a4,-5
 6a0:	fff00793          	li	a5,-1
 6a4:	fce42023          	sw	a4,-64(s0)
 6a8:	fcf42223          	sw	a5,-60(s0)
 6ac:	fc842603          	lw	a2,-56(s0)
 6b0:	fcc42683          	lw	a3,-52(s0)
 6b4:	fc042503          	lw	a0,-64(s0)
 6b8:	fc442583          	lw	a1,-60(s0)
 6bc:	00a60733          	add	a4,a2,a0
 6c0:	00070813          	mv	a6,a4
 6c4:	00c83833          	sltu	a6,a6,a2
 6c8:	00b687b3          	add	a5,a3,a1
 6cc:	00f806b3          	add	a3,a6,a5
 6d0:	00068793          	mv	a5,a3
 6d4:	fae42c23          	sw	a4,-72(s0)
 6d8:	faf42e23          	sw	a5,-68(s0)
 6dc:	fa642c23          	sw	t1,-72(s0)
 6e0:	fa742e23          	sw	t2,-68(s0)
 6e4:	00500713          	li	a4,5
 6e8:	00000793          	li	a5,0
 6ec:	fce42423          	sw	a4,-56(s0)
 6f0:	fcf42623          	sw	a5,-52(s0)
 6f4:	ff600713          	li	a4,-10
 6f8:	fff00793          	li	a5,-1
 6fc:	fce42023          	sw	a4,-64(s0)
 700:	fcf42223          	sw	a5,-60(s0)
 704:	fc842603          	lw	a2,-56(s0)
 708:	fcc42683          	lw	a3,-52(s0)
 70c:	fc042503          	lw	a0,-64(s0)
 710:	fc442583          	lw	a1,-60(s0)
 714:	00a60733          	add	a4,a2,a0
 718:	00070813          	mv	a6,a4
 71c:	00c83833          	sltu	a6,a6,a2
 720:	00b687b3          	add	a5,a3,a1
 724:	00f806b3          	add	a3,a6,a5
 728:	00068793          	mv	a5,a3
 72c:	fae42c23          	sw	a4,-72(s0)
 730:	faf42e23          	sw	a5,-68(s0)
 734:	fa642c23          	sw	t1,-72(s0)
 738:	fa742e23          	sw	t2,-68(s0)
 73c:	00000797          	auipc	a5,0x0
 740:	42478793          	add	a5,a5,1060 # b60 <main+0x978>
 744:	0007a703          	lw	a4,0(a5)
 748:	0047a783          	lw	a5,4(a5)
 74c:	fce42423          	sw	a4,-56(s0)
 750:	fcf42623          	sw	a5,-52(s0)
 754:	00000797          	auipc	a5,0x0
 758:	40478793          	add	a5,a5,1028 # b58 <main+0x970>
 75c:	0007a703          	lw	a4,0(a5)
 760:	0047a783          	lw	a5,4(a5)
 764:	fce42023          	sw	a4,-64(s0)
 768:	fcf42223          	sw	a5,-60(s0)
 76c:	fc842603          	lw	a2,-56(s0)
 770:	fcc42683          	lw	a3,-52(s0)
 774:	fc042503          	lw	a0,-64(s0)
 778:	fc442583          	lw	a1,-60(s0)
 77c:	00a60733          	add	a4,a2,a0
 780:	00070813          	mv	a6,a4
 784:	00c83833          	sltu	a6,a6,a2
 788:	00b687b3          	add	a5,a3,a1
 78c:	00f806b3          	add	a3,a6,a5
 790:	00068793          	mv	a5,a3
 794:	fae42c23          	sw	a4,-72(s0)
 798:	faf42e23          	sw	a5,-68(s0)
 79c:	fa642c23          	sw	t1,-72(s0)
 7a0:	fa742e23          	sw	t2,-68(s0)
 7a4:	00000797          	auipc	a5,0x0
 7a8:	3c478793          	add	a5,a5,964 # b68 <main+0x980>
 7ac:	0007a703          	lw	a4,0(a5)
 7b0:	0047a783          	lw	a5,4(a5)
 7b4:	fce42423          	sw	a4,-56(s0)
 7b8:	fcf42623          	sw	a5,-52(s0)
 7bc:	00000797          	auipc	a5,0x0
 7c0:	3b478793          	add	a5,a5,948 # b70 <main+0x988>
 7c4:	0007a703          	lw	a4,0(a5)
 7c8:	0047a783          	lw	a5,4(a5)
 7cc:	fce42023          	sw	a4,-64(s0)
 7d0:	fcf42223          	sw	a5,-60(s0)
 7d4:	fc842603          	lw	a2,-56(s0)
 7d8:	fcc42683          	lw	a3,-52(s0)
 7dc:	fc042503          	lw	a0,-64(s0)
 7e0:	fc442583          	lw	a1,-60(s0)
 7e4:	00a60733          	add	a4,a2,a0
 7e8:	00070813          	mv	a6,a4
 7ec:	00c83833          	sltu	a6,a6,a2
 7f0:	00b687b3          	add	a5,a3,a1
 7f4:	00f806b3          	add	a3,a6,a5
 7f8:	00068793          	mv	a5,a3
 7fc:	fae42c23          	sw	a4,-72(s0)
 800:	faf42e23          	sw	a5,-68(s0)
 804:	fa642c23          	sw	t1,-72(s0)
 808:	fa742e23          	sw	t2,-68(s0)
 80c:	fa642823          	sw	t1,-80(s0)
 810:	fa742a23          	sw	t2,-76(s0)
 814:	fb042603          	lw	a2,-80(s0)
 818:	fb442683          	lw	a3,-76(s0)
 81c:	00100513          	li	a0,1
 820:	00000593          	li	a1,0
 824:	00a60733          	add	a4,a2,a0
 828:	00070813          	mv	a6,a4
 82c:	00c83833          	sltu	a6,a6,a2
 830:	00b687b3          	add	a5,a3,a1
 834:	00f806b3          	add	a3,a6,a5
 838:	00068793          	mv	a5,a3
 83c:	fae42823          	sw	a4,-80(s0)
 840:	faf42a23          	sw	a5,-76(s0)
 844:	fb042603          	lw	a2,-80(s0)
 848:	fb442683          	lw	a3,-76(s0)
 84c:	00200513          	li	a0,2
 850:	00000593          	li	a1,0
 854:	00a60733          	add	a4,a2,a0
 858:	00070813          	mv	a6,a4
 85c:	00c83833          	sltu	a6,a6,a2
 860:	00b687b3          	add	a5,a3,a1
 864:	00f806b3          	add	a3,a6,a5
 868:	00068793          	mv	a5,a3
 86c:	fae42823          	sw	a4,-80(s0)
 870:	faf42a23          	sw	a5,-76(s0)
 874:	fb042603          	lw	a2,-80(s0)
 878:	fb442683          	lw	a3,-76(s0)
 87c:	00300513          	li	a0,3
 880:	00000593          	li	a1,0
 884:	00a60733          	add	a4,a2,a0
 888:	00070813          	mv	a6,a4
 88c:	00c83833          	sltu	a6,a6,a2
 890:	00b687b3          	add	a5,a3,a1
 894:	00f806b3          	add	a3,a6,a5
 898:	00068793          	mv	a5,a3
 89c:	fae42823          	sw	a4,-80(s0)
 8a0:	faf42a23          	sw	a5,-76(s0)
 8a4:	fb042603          	lw	a2,-80(s0)
 8a8:	fb442683          	lw	a3,-76(s0)
 8ac:	00400513          	li	a0,4
 8b0:	00000593          	li	a1,0
 8b4:	00a60733          	add	a4,a2,a0
 8b8:	00070813          	mv	a6,a4
 8bc:	00c83833          	sltu	a6,a6,a2
 8c0:	00b687b3          	add	a5,a3,a1
 8c4:	00f806b3          	add	a3,a6,a5
 8c8:	00068793          	mv	a5,a3
 8cc:	fae42823          	sw	a4,-80(s0)
 8d0:	faf42a23          	sw	a5,-76(s0)
 8d4:	fb042603          	lw	a2,-80(s0)
 8d8:	fb442683          	lw	a3,-76(s0)
 8dc:	00500513          	li	a0,5
 8e0:	00000593          	li	a1,0
 8e4:	00a60733          	add	a4,a2,a0
 8e8:	00070813          	mv	a6,a4
 8ec:	00c83833          	sltu	a6,a6,a2
 8f0:	00b687b3          	add	a5,a3,a1
 8f4:	00f806b3          	add	a3,a6,a5
 8f8:	00068793          	mv	a5,a3
 8fc:	fae42823          	sw	a4,-80(s0)
 900:	faf42a23          	sw	a5,-76(s0)
 904:	fa642823          	sw	t1,-80(s0)
 908:	fa742a23          	sw	t2,-76(s0)
 90c:	00f00713          	li	a4,15
 910:	00000793          	li	a5,0
 914:	fce42823          	sw	a4,-48(s0)
 918:	fcf42a23          	sw	a5,-44(s0)
 91c:	fd042703          	lw	a4,-48(s0)
 920:	fd442783          	lw	a5,-44(s0)
 924:	fff00513          	li	a0,-1
 928:	fff00593          	li	a1,-1
 92c:	00a70633          	add	a2,a4,a0
 930:	00060813          	mv	a6,a2
 934:	00e83833          	sltu	a6,a6,a4
 938:	00b786b3          	add	a3,a5,a1
 93c:	00d807b3          	add	a5,a6,a3
 940:	00078693          	mv	a3,a5
 944:	00060713          	mv	a4,a2
 948:	00068793          	mv	a5,a3
 94c:	fce42823          	sw	a4,-48(s0)
 950:	fcf42a23          	sw	a5,-44(s0)
 954:	fd042703          	lw	a4,-48(s0)
 958:	fd442783          	lw	a5,-44(s0)
 95c:	ffe00513          	li	a0,-2
 960:	fff00593          	li	a1,-1
 964:	00a70633          	add	a2,a4,a0
 968:	00060813          	mv	a6,a2
 96c:	00e83833          	sltu	a6,a6,a4
 970:	00b786b3          	add	a3,a5,a1
 974:	00d807b3          	add	a5,a6,a3
 978:	00078693          	mv	a3,a5
 97c:	00060713          	mv	a4,a2
 980:	00068793          	mv	a5,a3
 984:	fce42823          	sw	a4,-48(s0)
 988:	fcf42a23          	sw	a5,-44(s0)
 98c:	fd042703          	lw	a4,-48(s0)
 990:	fd442783          	lw	a5,-44(s0)
 994:	ffd00513          	li	a0,-3
 998:	fff00593          	li	a1,-1
 99c:	00a70633          	add	a2,a4,a0
 9a0:	00060813          	mv	a6,a2
 9a4:	00e83833          	sltu	a6,a6,a4
 9a8:	00b786b3          	add	a3,a5,a1
 9ac:	00d807b3          	add	a5,a6,a3
 9b0:	00078693          	mv	a3,a5
 9b4:	00060713          	mv	a4,a2
 9b8:	00068793          	mv	a5,a3
 9bc:	fce42823          	sw	a4,-48(s0)
 9c0:	fcf42a23          	sw	a5,-44(s0)
 9c4:	fd042703          	lw	a4,-48(s0)
 9c8:	fd442783          	lw	a5,-44(s0)
 9cc:	ffc00513          	li	a0,-4
 9d0:	fff00593          	li	a1,-1
 9d4:	00a70633          	add	a2,a4,a0
 9d8:	00060813          	mv	a6,a2
 9dc:	00e83833          	sltu	a6,a6,a4
 9e0:	00b786b3          	add	a3,a5,a1
 9e4:	00d807b3          	add	a5,a6,a3
 9e8:	00078693          	mv	a3,a5
 9ec:	00060713          	mv	a4,a2
 9f0:	00068793          	mv	a5,a3
 9f4:	fce42823          	sw	a4,-48(s0)
 9f8:	fcf42a23          	sw	a5,-44(s0)
 9fc:	fd042703          	lw	a4,-48(s0)
 a00:	fd442783          	lw	a5,-44(s0)
 a04:	ffb00513          	li	a0,-5
 a08:	fff00593          	li	a1,-1
 a0c:	00a70633          	add	a2,a4,a0
 a10:	00060813          	mv	a6,a2
 a14:	00e83833          	sltu	a6,a6,a4
 a18:	00b786b3          	add	a3,a5,a1
 a1c:	00d807b3          	add	a5,a6,a3
 a20:	00078693          	mv	a3,a5
 a24:	00060713          	mv	a4,a2
 a28:	00068793          	mv	a5,a3
 a2c:	fce42823          	sw	a4,-48(s0)
 a30:	fcf42a23          	sw	a5,-44(s0)
 a34:	fc642823          	sw	t1,-48(s0)
 a38:	fc742a23          	sw	t2,-44(s0)
 a3c:	00f00713          	li	a4,15
 a40:	00000793          	li	a5,0
 a44:	fae42823          	sw	a4,-80(s0)
 a48:	faf42a23          	sw	a5,-76(s0)
 a4c:	fb042603          	lw	a2,-80(s0)
 a50:	fb442683          	lw	a3,-76(s0)
 a54:	fff00513          	li	a0,-1
 a58:	fff00593          	li	a1,-1
 a5c:	00a60733          	add	a4,a2,a0
 a60:	00070813          	mv	a6,a4
 a64:	00c83833          	sltu	a6,a6,a2
 a68:	00b687b3          	add	a5,a3,a1
 a6c:	00f806b3          	add	a3,a6,a5
 a70:	00068793          	mv	a5,a3
 a74:	fae42823          	sw	a4,-80(s0)
 a78:	faf42a23          	sw	a5,-76(s0)
 a7c:	fb042603          	lw	a2,-80(s0)
 a80:	fb442683          	lw	a3,-76(s0)
 a84:	ffe00513          	li	a0,-2
 a88:	fff00593          	li	a1,-1
 a8c:	00a60733          	add	a4,a2,a0
 a90:	00070813          	mv	a6,a4
 a94:	00c83833          	sltu	a6,a6,a2
 a98:	00b687b3          	add	a5,a3,a1
 a9c:	00f806b3          	add	a3,a6,a5
 aa0:	00068793          	mv	a5,a3
 aa4:	fae42823          	sw	a4,-80(s0)
 aa8:	faf42a23          	sw	a5,-76(s0)
 aac:	fb042603          	lw	a2,-80(s0)
 ab0:	fb442683          	lw	a3,-76(s0)
 ab4:	ffd00513          	li	a0,-3
 ab8:	fff00593          	li	a1,-1
 abc:	00a60733          	add	a4,a2,a0
 ac0:	00070813          	mv	a6,a4
 ac4:	00c83833          	sltu	a6,a6,a2
 ac8:	00b687b3          	add	a5,a3,a1
 acc:	00f806b3          	add	a3,a6,a5
 ad0:	00068793          	mv	a5,a3
 ad4:	fae42823          	sw	a4,-80(s0)
 ad8:	faf42a23          	sw	a5,-76(s0)
 adc:	fb042603          	lw	a2,-80(s0)
 ae0:	fb442683          	lw	a3,-76(s0)
 ae4:	ffc00513          	li	a0,-4
 ae8:	fff00593          	li	a1,-1
 aec:	00a60733          	add	a4,a2,a0
 af0:	00070813          	mv	a6,a4
 af4:	00c83833          	sltu	a6,a6,a2
 af8:	00b687b3          	add	a5,a3,a1
 afc:	00f806b3          	add	a3,a6,a5
 b00:	00068793          	mv	a5,a3
 b04:	fae42823          	sw	a4,-80(s0)
 b08:	faf42a23          	sw	a5,-76(s0)
 b0c:	fb042603          	lw	a2,-80(s0)
 b10:	fb442683          	lw	a3,-76(s0)
 b14:	ffb00513          	li	a0,-5
 b18:	fff00593          	li	a1,-1
 b1c:	00a60733          	add	a4,a2,a0
 b20:	00070813          	mv	a6,a4
 b24:	00c83833          	sltu	a6,a6,a2
 b28:	00b687b3          	add	a5,a3,a1
 b2c:	00f806b3          	add	a3,a6,a5
 b30:	00068793          	mv	a5,a3
 b34:	fae42823          	sw	a4,-80(s0)
 b38:	faf42a23          	sw	a5,-76(s0)
 b3c:	fa642823          	sw	t1,-80(s0)
 b40:	fa742a23          	sw	t2,-76(s0)
 b44:	00000793          	li	a5,0
 b48:	00078513          	mv	a0,a5
 b4c:	04c12403          	lw	s0,76(sp)
 b50:	05010113          	add	sp,sp,80
 b54:	00008067          	ret
