
test/044.sub.riscv:     file format elf32-littleriscv


Disassembly of section .text:

000001d8 <_start>:
 1d8:	00500137          	lui	sp,0x500
 1dc:	00c000ef          	jal	1e8 <main>
 1e0:	200002b7          	lui	t0,0x20000
 1e4:	00100073          	ebreak

000001e8 <main>:
 1e8:	fb010113          	add	sp,sp,-80 # 4fffb0 <__BSS_END__+0x4fceb0>
 1ec:	04812623          	sw	s0,76(sp)
 1f0:	05010413          	add	s0,sp,80
 1f4:	fff00713          	li	a4,-1
 1f8:	00000793          	li	a5,0
 1fc:	fee42423          	sw	a4,-24(s0)
 200:	fef42623          	sw	a5,-20(s0)
 204:	00000713          	li	a4,0
 208:	fff00793          	li	a5,-1
 20c:	fee42023          	sw	a4,-32(s0)
 210:	fef42223          	sw	a5,-28(s0)
 214:	fe842603          	lw	a2,-24(s0)
 218:	fec42683          	lw	a3,-20(s0)
 21c:	fe042503          	lw	a0,-32(s0)
 220:	fe442583          	lw	a1,-28(s0)
 224:	40a60733          	sub	a4,a2,a0
 228:	00070813          	mv	a6,a4
 22c:	01063833          	sltu	a6,a2,a6
 230:	40b687b3          	sub	a5,a3,a1
 234:	410786b3          	sub	a3,a5,a6
 238:	00068793          	mv	a5,a3
 23c:	fce42c23          	sw	a4,-40(s0)
 240:	fcf42e23          	sw	a5,-36(s0)
 244:	00000313          	li	t1,0
 248:	00000393          	li	t2,0
 24c:	fc642c23          	sw	t1,-40(s0)
 250:	fc742e23          	sw	t2,-36(s0)
 254:	fec00713          	li	a4,-20
 258:	fff00793          	li	a5,-1
 25c:	fee42423          	sw	a4,-24(s0)
 260:	fef42623          	sw	a5,-20(s0)
 264:	fe200713          	li	a4,-30
 268:	fff00793          	li	a5,-1
 26c:	fee42023          	sw	a4,-32(s0)
 270:	fef42223          	sw	a5,-28(s0)
 274:	fe842603          	lw	a2,-24(s0)
 278:	fec42683          	lw	a3,-20(s0)
 27c:	fe042503          	lw	a0,-32(s0)
 280:	fe442583          	lw	a1,-28(s0)
 284:	40a60733          	sub	a4,a2,a0
 288:	00070813          	mv	a6,a4
 28c:	01063833          	sltu	a6,a2,a6
 290:	40b687b3          	sub	a5,a3,a1
 294:	410786b3          	sub	a3,a5,a6
 298:	00068793          	mv	a5,a3
 29c:	fce42c23          	sw	a4,-40(s0)
 2a0:	fcf42e23          	sw	a5,-36(s0)
 2a4:	fc642c23          	sw	t1,-40(s0)
 2a8:	fc742e23          	sw	t2,-36(s0)
 2ac:	ffe00713          	li	a4,-2
 2b0:	fff00793          	li	a5,-1
 2b4:	fee42423          	sw	a4,-24(s0)
 2b8:	fef42623          	sw	a5,-20(s0)
 2bc:	00200713          	li	a4,2
 2c0:	00000793          	li	a5,0
 2c4:	fee42023          	sw	a4,-32(s0)
 2c8:	fef42223          	sw	a5,-28(s0)
 2cc:	fe842603          	lw	a2,-24(s0)
 2d0:	fec42683          	lw	a3,-20(s0)
 2d4:	fe042503          	lw	a0,-32(s0)
 2d8:	fe442583          	lw	a1,-28(s0)
 2dc:	40a60733          	sub	a4,a2,a0
 2e0:	00070813          	mv	a6,a4
 2e4:	01063833          	sltu	a6,a2,a6
 2e8:	40b687b3          	sub	a5,a3,a1
 2ec:	410786b3          	sub	a3,a5,a6
 2f0:	00068793          	mv	a5,a3
 2f4:	fce42c23          	sw	a4,-40(s0)
 2f8:	fcf42e23          	sw	a5,-36(s0)
 2fc:	fc642c23          	sw	t1,-40(s0)
 300:	fc742e23          	sw	t2,-36(s0)
 304:	00a00713          	li	a4,10
 308:	00000793          	li	a5,0
 30c:	fee42423          	sw	a4,-24(s0)
 310:	fef42623          	sw	a5,-20(s0)
 314:	ffb00713          	li	a4,-5
 318:	fff00793          	li	a5,-1
 31c:	fee42023          	sw	a4,-32(s0)
 320:	fef42223          	sw	a5,-28(s0)
 324:	fe842603          	lw	a2,-24(s0)
 328:	fec42683          	lw	a3,-20(s0)
 32c:	fe042503          	lw	a0,-32(s0)
 330:	fe442583          	lw	a1,-28(s0)
 334:	40a60733          	sub	a4,a2,a0
 338:	00070813          	mv	a6,a4
 33c:	01063833          	sltu	a6,a2,a6
 340:	40b687b3          	sub	a5,a3,a1
 344:	410786b3          	sub	a3,a5,a6
 348:	00068793          	mv	a5,a3
 34c:	fce42c23          	sw	a4,-40(s0)
 350:	fcf42e23          	sw	a5,-36(s0)
 354:	fc642c23          	sw	t1,-40(s0)
 358:	fc742e23          	sw	t2,-36(s0)
 35c:	00500713          	li	a4,5
 360:	00000793          	li	a5,0
 364:	fee42423          	sw	a4,-24(s0)
 368:	fef42623          	sw	a5,-20(s0)
 36c:	ff600713          	li	a4,-10
 370:	fff00793          	li	a5,-1
 374:	fee42023          	sw	a4,-32(s0)
 378:	fef42223          	sw	a5,-28(s0)
 37c:	fe842603          	lw	a2,-24(s0)
 380:	fec42683          	lw	a3,-20(s0)
 384:	fe042503          	lw	a0,-32(s0)
 388:	fe442583          	lw	a1,-28(s0)
 38c:	40a60733          	sub	a4,a2,a0
 390:	00070813          	mv	a6,a4
 394:	01063833          	sltu	a6,a2,a6
 398:	40b687b3          	sub	a5,a3,a1
 39c:	410786b3          	sub	a3,a5,a6
 3a0:	00068793          	mv	a5,a3
 3a4:	fce42c23          	sw	a4,-40(s0)
 3a8:	fcf42e23          	sw	a5,-36(s0)
 3ac:	fc642c23          	sw	t1,-40(s0)
 3b0:	fc742e23          	sw	t2,-36(s0)
 3b4:	00000797          	auipc	a5,0x0
 3b8:	7a478793          	add	a5,a5,1956 # b58 <main+0x970>
 3bc:	0007a703          	lw	a4,0(a5)
 3c0:	0047a783          	lw	a5,4(a5)
 3c4:	fee42423          	sw	a4,-24(s0)
 3c8:	fef42623          	sw	a5,-20(s0)
 3cc:	00000797          	auipc	a5,0x0
 3d0:	79478793          	add	a5,a5,1940 # b60 <main+0x978>
 3d4:	0007a703          	lw	a4,0(a5)
 3d8:	0047a783          	lw	a5,4(a5)
 3dc:	fee42023          	sw	a4,-32(s0)
 3e0:	fef42223          	sw	a5,-28(s0)
 3e4:	fe842603          	lw	a2,-24(s0)
 3e8:	fec42683          	lw	a3,-20(s0)
 3ec:	fe042503          	lw	a0,-32(s0)
 3f0:	fe442583          	lw	a1,-28(s0)
 3f4:	40a60733          	sub	a4,a2,a0
 3f8:	00070813          	mv	a6,a4
 3fc:	01063833          	sltu	a6,a2,a6
 400:	40b687b3          	sub	a5,a3,a1
 404:	410786b3          	sub	a3,a5,a6
 408:	00068793          	mv	a5,a3
 40c:	fce42c23          	sw	a4,-40(s0)
 410:	fcf42e23          	sw	a5,-36(s0)
 414:	fc642c23          	sw	t1,-40(s0)
 418:	fc742e23          	sw	t2,-36(s0)
 41c:	00000797          	auipc	a5,0x0
 420:	74c78793          	add	a5,a5,1868 # b68 <main+0x980>
 424:	0007a703          	lw	a4,0(a5)
 428:	0047a783          	lw	a5,4(a5)
 42c:	fee42423          	sw	a4,-24(s0)
 430:	fef42623          	sw	a5,-20(s0)
 434:	00000797          	auipc	a5,0x0
 438:	73c78793          	add	a5,a5,1852 # b70 <main+0x988>
 43c:	0007a703          	lw	a4,0(a5)
 440:	0047a783          	lw	a5,4(a5)
 444:	fee42023          	sw	a4,-32(s0)
 448:	fef42223          	sw	a5,-28(s0)
 44c:	fe842603          	lw	a2,-24(s0)
 450:	fec42683          	lw	a3,-20(s0)
 454:	fe042503          	lw	a0,-32(s0)
 458:	fe442583          	lw	a1,-28(s0)
 45c:	40a60733          	sub	a4,a2,a0
 460:	00070813          	mv	a6,a4
 464:	01063833          	sltu	a6,a2,a6
 468:	40b687b3          	sub	a5,a3,a1
 46c:	410786b3          	sub	a3,a5,a6
 470:	00068793          	mv	a5,a3
 474:	fce42c23          	sw	a4,-40(s0)
 478:	fcf42e23          	sw	a5,-36(s0)
 47c:	fc642c23          	sw	t1,-40(s0)
 480:	fc742e23          	sw	t2,-36(s0)
 484:	00f00713          	li	a4,15
 488:	00000793          	li	a5,0
 48c:	fce42823          	sw	a4,-48(s0)
 490:	fcf42a23          	sw	a5,-44(s0)
 494:	fd042603          	lw	a2,-48(s0)
 498:	fd442683          	lw	a3,-44(s0)
 49c:	fff00513          	li	a0,-1
 4a0:	fff00593          	li	a1,-1
 4a4:	00a60733          	add	a4,a2,a0
 4a8:	00070813          	mv	a6,a4
 4ac:	00c83833          	sltu	a6,a6,a2
 4b0:	00b687b3          	add	a5,a3,a1
 4b4:	00f806b3          	add	a3,a6,a5
 4b8:	00068793          	mv	a5,a3
 4bc:	fce42823          	sw	a4,-48(s0)
 4c0:	fcf42a23          	sw	a5,-44(s0)
 4c4:	fd042603          	lw	a2,-48(s0)
 4c8:	fd442683          	lw	a3,-44(s0)
 4cc:	ffe00513          	li	a0,-2
 4d0:	fff00593          	li	a1,-1
 4d4:	00a60733          	add	a4,a2,a0
 4d8:	00070813          	mv	a6,a4
 4dc:	00c83833          	sltu	a6,a6,a2
 4e0:	00b687b3          	add	a5,a3,a1
 4e4:	00f806b3          	add	a3,a6,a5
 4e8:	00068793          	mv	a5,a3
 4ec:	fce42823          	sw	a4,-48(s0)
 4f0:	fcf42a23          	sw	a5,-44(s0)
 4f4:	fd042603          	lw	a2,-48(s0)
 4f8:	fd442683          	lw	a3,-44(s0)
 4fc:	ffd00513          	li	a0,-3
 500:	fff00593          	li	a1,-1
 504:	00a60733          	add	a4,a2,a0
 508:	00070813          	mv	a6,a4
 50c:	00c83833          	sltu	a6,a6,a2
 510:	00b687b3          	add	a5,a3,a1
 514:	00f806b3          	add	a3,a6,a5
 518:	00068793          	mv	a5,a3
 51c:	fce42823          	sw	a4,-48(s0)
 520:	fcf42a23          	sw	a5,-44(s0)
 524:	fd042603          	lw	a2,-48(s0)
 528:	fd442683          	lw	a3,-44(s0)
 52c:	ffc00513          	li	a0,-4
 530:	fff00593          	li	a1,-1
 534:	00a60733          	add	a4,a2,a0
 538:	00070813          	mv	a6,a4
 53c:	00c83833          	sltu	a6,a6,a2
 540:	00b687b3          	add	a5,a3,a1
 544:	00f806b3          	add	a3,a6,a5
 548:	00068793          	mv	a5,a3
 54c:	fce42823          	sw	a4,-48(s0)
 550:	fcf42a23          	sw	a5,-44(s0)
 554:	fd042603          	lw	a2,-48(s0)
 558:	fd442683          	lw	a3,-44(s0)
 55c:	ffb00513          	li	a0,-5
 560:	fff00593          	li	a1,-1
 564:	00a60733          	add	a4,a2,a0
 568:	00070813          	mv	a6,a4
 56c:	00c83833          	sltu	a6,a6,a2
 570:	00b687b3          	add	a5,a3,a1
 574:	00f806b3          	add	a3,a6,a5
 578:	00068793          	mv	a5,a3
 57c:	fce42823          	sw	a4,-48(s0)
 580:	fcf42a23          	sw	a5,-44(s0)
 584:	fc642823          	sw	t1,-48(s0)
 588:	fc742a23          	sw	t2,-44(s0)
 58c:	fff00713          	li	a4,-1
 590:	00000793          	li	a5,0
 594:	fce42423          	sw	a4,-56(s0)
 598:	fcf42623          	sw	a5,-52(s0)
 59c:	00000713          	li	a4,0
 5a0:	fff00793          	li	a5,-1
 5a4:	fce42023          	sw	a4,-64(s0)
 5a8:	fcf42223          	sw	a5,-60(s0)
 5ac:	fc842603          	lw	a2,-56(s0)
 5b0:	fcc42683          	lw	a3,-52(s0)
 5b4:	fc042503          	lw	a0,-64(s0)
 5b8:	fc442583          	lw	a1,-60(s0)
 5bc:	40a60733          	sub	a4,a2,a0
 5c0:	00070813          	mv	a6,a4
 5c4:	01063833          	sltu	a6,a2,a6
 5c8:	40b687b3          	sub	a5,a3,a1
 5cc:	410786b3          	sub	a3,a5,a6
 5d0:	00068793          	mv	a5,a3
 5d4:	fae42c23          	sw	a4,-72(s0)
 5d8:	faf42e23          	sw	a5,-68(s0)
 5dc:	fa642c23          	sw	t1,-72(s0)
 5e0:	fa742e23          	sw	t2,-68(s0)
 5e4:	fec00713          	li	a4,-20
 5e8:	fff00793          	li	a5,-1
 5ec:	fce42423          	sw	a4,-56(s0)
 5f0:	fcf42623          	sw	a5,-52(s0)
 5f4:	fe200713          	li	a4,-30
 5f8:	fff00793          	li	a5,-1
 5fc:	fce42023          	sw	a4,-64(s0)
 600:	fcf42223          	sw	a5,-60(s0)
 604:	fc842603          	lw	a2,-56(s0)
 608:	fcc42683          	lw	a3,-52(s0)
 60c:	fc042503          	lw	a0,-64(s0)
 610:	fc442583          	lw	a1,-60(s0)
 614:	40a60733          	sub	a4,a2,a0
 618:	00070813          	mv	a6,a4
 61c:	01063833          	sltu	a6,a2,a6
 620:	40b687b3          	sub	a5,a3,a1
 624:	410786b3          	sub	a3,a5,a6
 628:	00068793          	mv	a5,a3
 62c:	fae42c23          	sw	a4,-72(s0)
 630:	faf42e23          	sw	a5,-68(s0)
 634:	fa642c23          	sw	t1,-72(s0)
 638:	fa742e23          	sw	t2,-68(s0)
 63c:	ffe00713          	li	a4,-2
 640:	fff00793          	li	a5,-1
 644:	fce42423          	sw	a4,-56(s0)
 648:	fcf42623          	sw	a5,-52(s0)
 64c:	00200713          	li	a4,2
 650:	00000793          	li	a5,0
 654:	fce42023          	sw	a4,-64(s0)
 658:	fcf42223          	sw	a5,-60(s0)
 65c:	fc842603          	lw	a2,-56(s0)
 660:	fcc42683          	lw	a3,-52(s0)
 664:	fc042503          	lw	a0,-64(s0)
 668:	fc442583          	lw	a1,-60(s0)
 66c:	40a60733          	sub	a4,a2,a0
 670:	00070813          	mv	a6,a4
 674:	01063833          	sltu	a6,a2,a6
 678:	40b687b3          	sub	a5,a3,a1
 67c:	410786b3          	sub	a3,a5,a6
 680:	00068793          	mv	a5,a3
 684:	fae42c23          	sw	a4,-72(s0)
 688:	faf42e23          	sw	a5,-68(s0)
 68c:	fa642c23          	sw	t1,-72(s0)
 690:	fa742e23          	sw	t2,-68(s0)
 694:	00a00713          	li	a4,10
 698:	00000793          	li	a5,0
 69c:	fce42423          	sw	a4,-56(s0)
 6a0:	fcf42623          	sw	a5,-52(s0)
 6a4:	ffb00713          	li	a4,-5
 6a8:	fff00793          	li	a5,-1
 6ac:	fce42023          	sw	a4,-64(s0)
 6b0:	fcf42223          	sw	a5,-60(s0)
 6b4:	fc842603          	lw	a2,-56(s0)
 6b8:	fcc42683          	lw	a3,-52(s0)
 6bc:	fc042503          	lw	a0,-64(s0)
 6c0:	fc442583          	lw	a1,-60(s0)
 6c4:	40a60733          	sub	a4,a2,a0
 6c8:	00070813          	mv	a6,a4
 6cc:	01063833          	sltu	a6,a2,a6
 6d0:	40b687b3          	sub	a5,a3,a1
 6d4:	410786b3          	sub	a3,a5,a6
 6d8:	00068793          	mv	a5,a3
 6dc:	fae42c23          	sw	a4,-72(s0)
 6e0:	faf42e23          	sw	a5,-68(s0)
 6e4:	fa642c23          	sw	t1,-72(s0)
 6e8:	fa742e23          	sw	t2,-68(s0)
 6ec:	00500713          	li	a4,5
 6f0:	00000793          	li	a5,0
 6f4:	fce42423          	sw	a4,-56(s0)
 6f8:	fcf42623          	sw	a5,-52(s0)
 6fc:	ff600713          	li	a4,-10
 700:	fff00793          	li	a5,-1
 704:	fce42023          	sw	a4,-64(s0)
 708:	fcf42223          	sw	a5,-60(s0)
 70c:	fc842603          	lw	a2,-56(s0)
 710:	fcc42683          	lw	a3,-52(s0)
 714:	fc042503          	lw	a0,-64(s0)
 718:	fc442583          	lw	a1,-60(s0)
 71c:	40a60733          	sub	a4,a2,a0
 720:	00070813          	mv	a6,a4
 724:	01063833          	sltu	a6,a2,a6
 728:	40b687b3          	sub	a5,a3,a1
 72c:	410786b3          	sub	a3,a5,a6
 730:	00068793          	mv	a5,a3
 734:	fae42c23          	sw	a4,-72(s0)
 738:	faf42e23          	sw	a5,-68(s0)
 73c:	fa642c23          	sw	t1,-72(s0)
 740:	fa742e23          	sw	t2,-68(s0)
 744:	00000797          	auipc	a5,0x0
 748:	41c78793          	add	a5,a5,1052 # b60 <main+0x978>
 74c:	0007a703          	lw	a4,0(a5)
 750:	0047a783          	lw	a5,4(a5)
 754:	fce42423          	sw	a4,-56(s0)
 758:	fcf42623          	sw	a5,-52(s0)
 75c:	00000797          	auipc	a5,0x0
 760:	3fc78793          	add	a5,a5,1020 # b58 <main+0x970>
 764:	0007a703          	lw	a4,0(a5)
 768:	0047a783          	lw	a5,4(a5)
 76c:	fce42023          	sw	a4,-64(s0)
 770:	fcf42223          	sw	a5,-60(s0)
 774:	fc842603          	lw	a2,-56(s0)
 778:	fcc42683          	lw	a3,-52(s0)
 77c:	fc042503          	lw	a0,-64(s0)
 780:	fc442583          	lw	a1,-60(s0)
 784:	40a60733          	sub	a4,a2,a0
 788:	00070813          	mv	a6,a4
 78c:	01063833          	sltu	a6,a2,a6
 790:	40b687b3          	sub	a5,a3,a1
 794:	410786b3          	sub	a3,a5,a6
 798:	00068793          	mv	a5,a3
 79c:	fae42c23          	sw	a4,-72(s0)
 7a0:	faf42e23          	sw	a5,-68(s0)
 7a4:	fa642c23          	sw	t1,-72(s0)
 7a8:	fa742e23          	sw	t2,-68(s0)
 7ac:	00000797          	auipc	a5,0x0
 7b0:	3bc78793          	add	a5,a5,956 # b68 <main+0x980>
 7b4:	0007a703          	lw	a4,0(a5)
 7b8:	0047a783          	lw	a5,4(a5)
 7bc:	fce42423          	sw	a4,-56(s0)
 7c0:	fcf42623          	sw	a5,-52(s0)
 7c4:	00000797          	auipc	a5,0x0
 7c8:	3ac78793          	add	a5,a5,940 # b70 <main+0x988>
 7cc:	0007a703          	lw	a4,0(a5)
 7d0:	0047a783          	lw	a5,4(a5)
 7d4:	fce42023          	sw	a4,-64(s0)
 7d8:	fcf42223          	sw	a5,-60(s0)
 7dc:	fc842603          	lw	a2,-56(s0)
 7e0:	fcc42683          	lw	a3,-52(s0)
 7e4:	fc042503          	lw	a0,-64(s0)
 7e8:	fc442583          	lw	a1,-60(s0)
 7ec:	40a60733          	sub	a4,a2,a0
 7f0:	00070813          	mv	a6,a4
 7f4:	01063833          	sltu	a6,a2,a6
 7f8:	40b687b3          	sub	a5,a3,a1
 7fc:	410786b3          	sub	a3,a5,a6
 800:	00068793          	mv	a5,a3
 804:	fae42c23          	sw	a4,-72(s0)
 808:	faf42e23          	sw	a5,-68(s0)
 80c:	fa642c23          	sw	t1,-72(s0)
 810:	fa742e23          	sw	t2,-68(s0)
 814:	00f00713          	li	a4,15
 818:	00000793          	li	a5,0
 81c:	fae42823          	sw	a4,-80(s0)
 820:	faf42a23          	sw	a5,-76(s0)
 824:	fb042603          	lw	a2,-80(s0)
 828:	fb442683          	lw	a3,-76(s0)
 82c:	fff00513          	li	a0,-1
 830:	fff00593          	li	a1,-1
 834:	00a60733          	add	a4,a2,a0
 838:	00070813          	mv	a6,a4
 83c:	00c83833          	sltu	a6,a6,a2
 840:	00b687b3          	add	a5,a3,a1
 844:	00f806b3          	add	a3,a6,a5
 848:	00068793          	mv	a5,a3
 84c:	fae42823          	sw	a4,-80(s0)
 850:	faf42a23          	sw	a5,-76(s0)
 854:	fb042603          	lw	a2,-80(s0)
 858:	fb442683          	lw	a3,-76(s0)
 85c:	ffe00513          	li	a0,-2
 860:	fff00593          	li	a1,-1
 864:	00a60733          	add	a4,a2,a0
 868:	00070813          	mv	a6,a4
 86c:	00c83833          	sltu	a6,a6,a2
 870:	00b687b3          	add	a5,a3,a1
 874:	00f806b3          	add	a3,a6,a5
 878:	00068793          	mv	a5,a3
 87c:	fae42823          	sw	a4,-80(s0)
 880:	faf42a23          	sw	a5,-76(s0)
 884:	fb042603          	lw	a2,-80(s0)
 888:	fb442683          	lw	a3,-76(s0)
 88c:	ffd00513          	li	a0,-3
 890:	fff00593          	li	a1,-1
 894:	00a60733          	add	a4,a2,a0
 898:	00070813          	mv	a6,a4
 89c:	00c83833          	sltu	a6,a6,a2
 8a0:	00b687b3          	add	a5,a3,a1
 8a4:	00f806b3          	add	a3,a6,a5
 8a8:	00068793          	mv	a5,a3
 8ac:	fae42823          	sw	a4,-80(s0)
 8b0:	faf42a23          	sw	a5,-76(s0)
 8b4:	fb042603          	lw	a2,-80(s0)
 8b8:	fb442683          	lw	a3,-76(s0)
 8bc:	ffc00513          	li	a0,-4
 8c0:	fff00593          	li	a1,-1
 8c4:	00a60733          	add	a4,a2,a0
 8c8:	00070813          	mv	a6,a4
 8cc:	00c83833          	sltu	a6,a6,a2
 8d0:	00b687b3          	add	a5,a3,a1
 8d4:	00f806b3          	add	a3,a6,a5
 8d8:	00068793          	mv	a5,a3
 8dc:	fae42823          	sw	a4,-80(s0)
 8e0:	faf42a23          	sw	a5,-76(s0)
 8e4:	fb042603          	lw	a2,-80(s0)
 8e8:	fb442683          	lw	a3,-76(s0)
 8ec:	ffb00513          	li	a0,-5
 8f0:	fff00593          	li	a1,-1
 8f4:	00a60733          	add	a4,a2,a0
 8f8:	00070813          	mv	a6,a4
 8fc:	00c83833          	sltu	a6,a6,a2
 900:	00b687b3          	add	a5,a3,a1
 904:	00f806b3          	add	a3,a6,a5
 908:	00068793          	mv	a5,a3
 90c:	fae42823          	sw	a4,-80(s0)
 910:	faf42a23          	sw	a5,-76(s0)
 914:	fa642823          	sw	t1,-80(s0)
 918:	fa742a23          	sw	t2,-76(s0)
 91c:	fc642823          	sw	t1,-48(s0)
 920:	fc742a23          	sw	t2,-44(s0)
 924:	fd042703          	lw	a4,-48(s0)
 928:	fd442783          	lw	a5,-44(s0)
 92c:	00100513          	li	a0,1
 930:	00000593          	li	a1,0
 934:	00a70633          	add	a2,a4,a0
 938:	00060813          	mv	a6,a2
 93c:	00e83833          	sltu	a6,a6,a4
 940:	00b786b3          	add	a3,a5,a1
 944:	00d807b3          	add	a5,a6,a3
 948:	00078693          	mv	a3,a5
 94c:	00060713          	mv	a4,a2
 950:	00068793          	mv	a5,a3
 954:	fce42823          	sw	a4,-48(s0)
 958:	fcf42a23          	sw	a5,-44(s0)
 95c:	fd042703          	lw	a4,-48(s0)
 960:	fd442783          	lw	a5,-44(s0)
 964:	00200513          	li	a0,2
 968:	00000593          	li	a1,0
 96c:	00a70633          	add	a2,a4,a0
 970:	00060813          	mv	a6,a2
 974:	00e83833          	sltu	a6,a6,a4
 978:	00b786b3          	add	a3,a5,a1
 97c:	00d807b3          	add	a5,a6,a3
 980:	00078693          	mv	a3,a5
 984:	00060713          	mv	a4,a2
 988:	00068793          	mv	a5,a3
 98c:	fce42823          	sw	a4,-48(s0)
 990:	fcf42a23          	sw	a5,-44(s0)
 994:	fd042703          	lw	a4,-48(s0)
 998:	fd442783          	lw	a5,-44(s0)
 99c:	00300513          	li	a0,3
 9a0:	00000593          	li	a1,0
 9a4:	00a70633          	add	a2,a4,a0
 9a8:	00060813          	mv	a6,a2
 9ac:	00e83833          	sltu	a6,a6,a4
 9b0:	00b786b3          	add	a3,a5,a1
 9b4:	00d807b3          	add	a5,a6,a3
 9b8:	00078693          	mv	a3,a5
 9bc:	00060713          	mv	a4,a2
 9c0:	00068793          	mv	a5,a3
 9c4:	fce42823          	sw	a4,-48(s0)
 9c8:	fcf42a23          	sw	a5,-44(s0)
 9cc:	fd042703          	lw	a4,-48(s0)
 9d0:	fd442783          	lw	a5,-44(s0)
 9d4:	00400513          	li	a0,4
 9d8:	00000593          	li	a1,0
 9dc:	00a70633          	add	a2,a4,a0
 9e0:	00060813          	mv	a6,a2
 9e4:	00e83833          	sltu	a6,a6,a4
 9e8:	00b786b3          	add	a3,a5,a1
 9ec:	00d807b3          	add	a5,a6,a3
 9f0:	00078693          	mv	a3,a5
 9f4:	00060713          	mv	a4,a2
 9f8:	00068793          	mv	a5,a3
 9fc:	fce42823          	sw	a4,-48(s0)
 a00:	fcf42a23          	sw	a5,-44(s0)
 a04:	fd042703          	lw	a4,-48(s0)
 a08:	fd442783          	lw	a5,-44(s0)
 a0c:	00500513          	li	a0,5
 a10:	00000593          	li	a1,0
 a14:	00a70633          	add	a2,a4,a0
 a18:	00060813          	mv	a6,a2
 a1c:	00e83833          	sltu	a6,a6,a4
 a20:	00b786b3          	add	a3,a5,a1
 a24:	00d807b3          	add	a5,a6,a3
 a28:	00078693          	mv	a3,a5
 a2c:	00060713          	mv	a4,a2
 a30:	00068793          	mv	a5,a3
 a34:	fce42823          	sw	a4,-48(s0)
 a38:	fcf42a23          	sw	a5,-44(s0)
 a3c:	fc642823          	sw	t1,-48(s0)
 a40:	fc742a23          	sw	t2,-44(s0)
 a44:	fa642823          	sw	t1,-80(s0)
 a48:	fa742a23          	sw	t2,-76(s0)
 a4c:	fb042603          	lw	a2,-80(s0)
 a50:	fb442683          	lw	a3,-76(s0)
 a54:	00100513          	li	a0,1
 a58:	00000593          	li	a1,0
 a5c:	00a60733          	add	a4,a2,a0
 a60:	00070813          	mv	a6,a4
 a64:	00c83833          	sltu	a6,a6,a2
 a68:	00b687b3          	add	a5,a3,a1
 a6c:	00f806b3          	add	a3,a6,a5
 a70:	00068793          	mv	a5,a3
 a74:	fae42823          	sw	a4,-80(s0)
 a78:	faf42a23          	sw	a5,-76(s0)
 a7c:	fb042603          	lw	a2,-80(s0)
 a80:	fb442683          	lw	a3,-76(s0)
 a84:	00200513          	li	a0,2
 a88:	00000593          	li	a1,0
 a8c:	00a60733          	add	a4,a2,a0
 a90:	00070813          	mv	a6,a4
 a94:	00c83833          	sltu	a6,a6,a2
 a98:	00b687b3          	add	a5,a3,a1
 a9c:	00f806b3          	add	a3,a6,a5
 aa0:	00068793          	mv	a5,a3
 aa4:	fae42823          	sw	a4,-80(s0)
 aa8:	faf42a23          	sw	a5,-76(s0)
 aac:	fb042603          	lw	a2,-80(s0)
 ab0:	fb442683          	lw	a3,-76(s0)
 ab4:	00300513          	li	a0,3
 ab8:	00000593          	li	a1,0
 abc:	00a60733          	add	a4,a2,a0
 ac0:	00070813          	mv	a6,a4
 ac4:	00c83833          	sltu	a6,a6,a2
 ac8:	00b687b3          	add	a5,a3,a1
 acc:	00f806b3          	add	a3,a6,a5
 ad0:	00068793          	mv	a5,a3
 ad4:	fae42823          	sw	a4,-80(s0)
 ad8:	faf42a23          	sw	a5,-76(s0)
 adc:	fb042603          	lw	a2,-80(s0)
 ae0:	fb442683          	lw	a3,-76(s0)
 ae4:	00400513          	li	a0,4
 ae8:	00000593          	li	a1,0
 aec:	00a60733          	add	a4,a2,a0
 af0:	00070813          	mv	a6,a4
 af4:	00c83833          	sltu	a6,a6,a2
 af8:	00b687b3          	add	a5,a3,a1
 afc:	00f806b3          	add	a3,a6,a5
 b00:	00068793          	mv	a5,a3
 b04:	fae42823          	sw	a4,-80(s0)
 b08:	faf42a23          	sw	a5,-76(s0)
 b0c:	fb042603          	lw	a2,-80(s0)
 b10:	fb442683          	lw	a3,-76(s0)
 b14:	00500513          	li	a0,5
 b18:	00000593          	li	a1,0
 b1c:	00a60733          	add	a4,a2,a0
 b20:	00070813          	mv	a6,a4
 b24:	00c83833          	sltu	a6,a6,a2
 b28:	00b687b3          	add	a5,a3,a1
 b2c:	00f806b3          	add	a3,a6,a5
 b30:	00068793          	mv	a5,a3
 b34:	fae42823          	sw	a4,-80(s0)
 b38:	faf42a23          	sw	a5,-76(s0)
 b3c:	fa642823          	sw	t1,-80(s0)
 b40:	fa742a23          	sw	t2,-76(s0)
 b44:	00000793          	li	a5,0
 b48:	00078513          	mv	a0,a5
 b4c:	04c12403          	lw	s0,76(sp)
 b50:	05010113          	add	sp,sp,80
 b54:	00008067          	ret
