
test/051.mul.riscv:     file format elf32-littleriscv


Disassembly of section .text:

000001d8 <_start>:
 1d8:	00500137          	lui	sp,0x500
 1dc:	00c000ef          	jal	1e8 <main>
 1e0:	200002b7          	lui	t0,0x20000
 1e4:	00100073          	ebreak

000001e8 <main>:
 1e8:	fe010113          	add	sp,sp,-32 # 4fffe0 <__BSS_END__+0x4fcee0>
 1ec:	00812e23          	sw	s0,28(sp)
 1f0:	02010413          	add	s0,sp,32
 1f4:	00200793          	li	a5,2
 1f8:	fef407a3          	sb	a5,-17(s0)
 1fc:	00400793          	li	a5,4
 200:	fef40723          	sb	a5,-18(s0)
 204:	fef40783          	lb	a5,-17(s0)
 208:	01079713          	sll	a4,a5,0x10
 20c:	41075713          	sra	a4,a4,0x10
 210:	fee40783          	lb	a5,-18(s0)
 214:	01079793          	sll	a5,a5,0x10
 218:	4107d793          	sra	a5,a5,0x10
 21c:	02f707b3          	mul	a5,a4,a5
 220:	fef41623          	sh	a5,-20(s0)
 224:	fe041623          	sh	zero,-20(s0)
 228:	fff00793          	li	a5,-1
 22c:	fef407a3          	sb	a5,-17(s0)
 230:	fff00793          	li	a5,-1
 234:	fef40723          	sb	a5,-18(s0)
 238:	fef40783          	lb	a5,-17(s0)
 23c:	01079713          	sll	a4,a5,0x10
 240:	41075713          	sra	a4,a4,0x10
 244:	fee40783          	lb	a5,-18(s0)
 248:	01079793          	sll	a5,a5,0x10
 24c:	4107d793          	sra	a5,a5,0x10
 250:	02f707b3          	mul	a5,a4,a5
 254:	fef41623          	sh	a5,-20(s0)
 258:	fe041623          	sh	zero,-20(s0)
 25c:	fff00793          	li	a5,-1
 260:	fef407a3          	sb	a5,-17(s0)
 264:	00100793          	li	a5,1
 268:	fef40723          	sb	a5,-18(s0)
 26c:	fef40783          	lb	a5,-17(s0)
 270:	01079713          	sll	a4,a5,0x10
 274:	41075713          	sra	a4,a4,0x10
 278:	fee40783          	lb	a5,-18(s0)
 27c:	01079793          	sll	a5,a5,0x10
 280:	4107d793          	sra	a5,a5,0x10
 284:	02f707b3          	mul	a5,a4,a5
 288:	fef41623          	sh	a5,-20(s0)
 28c:	fe041623          	sh	zero,-20(s0)
 290:	fff00793          	li	a5,-1
 294:	fef407a3          	sb	a5,-17(s0)
 298:	00a00793          	li	a5,10
 29c:	fef40723          	sb	a5,-18(s0)
 2a0:	fef40783          	lb	a5,-17(s0)
 2a4:	01079713          	sll	a4,a5,0x10
 2a8:	41075713          	sra	a4,a4,0x10
 2ac:	fee40783          	lb	a5,-18(s0)
 2b0:	01079793          	sll	a5,a5,0x10
 2b4:	4107d793          	sra	a5,a5,0x10
 2b8:	02f707b3          	mul	a5,a4,a5
 2bc:	fef41623          	sh	a5,-20(s0)
 2c0:	fe041623          	sh	zero,-20(s0)
 2c4:	ffe00793          	li	a5,-2
 2c8:	fef407a3          	sb	a5,-17(s0)
 2cc:	ffc00793          	li	a5,-4
 2d0:	fef40723          	sb	a5,-18(s0)
 2d4:	fef40783          	lb	a5,-17(s0)
 2d8:	01079713          	sll	a4,a5,0x10
 2dc:	41075713          	sra	a4,a4,0x10
 2e0:	fee40783          	lb	a5,-18(s0)
 2e4:	01079793          	sll	a5,a5,0x10
 2e8:	4107d793          	sra	a5,a5,0x10
 2ec:	02f707b3          	mul	a5,a4,a5
 2f0:	fef41623          	sh	a5,-20(s0)
 2f4:	fe041623          	sh	zero,-20(s0)
 2f8:	00a00793          	li	a5,10
 2fc:	fef407a3          	sb	a5,-17(s0)
 300:	00b00793          	li	a5,11
 304:	fef40723          	sb	a5,-18(s0)
 308:	fef40783          	lb	a5,-17(s0)
 30c:	01079713          	sll	a4,a5,0x10
 310:	41075713          	sra	a4,a4,0x10
 314:	fee40783          	lb	a5,-18(s0)
 318:	01079793          	sll	a5,a5,0x10
 31c:	4107d793          	sra	a5,a5,0x10
 320:	02f707b3          	mul	a5,a4,a5
 324:	fef41623          	sh	a5,-20(s0)
 328:	fe041623          	sh	zero,-20(s0)
 32c:	ff600793          	li	a5,-10
 330:	fef407a3          	sb	a5,-17(s0)
 334:	00b00793          	li	a5,11
 338:	fef40723          	sb	a5,-18(s0)
 33c:	fef40783          	lb	a5,-17(s0)
 340:	01079713          	sll	a4,a5,0x10
 344:	41075713          	sra	a4,a4,0x10
 348:	fee40783          	lb	a5,-18(s0)
 34c:	01079793          	sll	a5,a5,0x10
 350:	4107d793          	sra	a5,a5,0x10
 354:	02f707b3          	mul	a5,a4,a5
 358:	fef41623          	sh	a5,-20(s0)
 35c:	fe041623          	sh	zero,-20(s0)
 360:	00000793          	li	a5,0
 364:	00078513          	mv	a0,a5
 368:	01c12403          	lw	s0,28(sp)
 36c:	02010113          	add	sp,sp,32
 370:	00008067          	ret
