
test/055.mul.riscv:     file format elf32-littleriscv


Disassembly of section .text:

000001d8 <_start>:
 1d8:	00500137          	lui	sp,0x500
 1dc:	00c000ef          	jal	1e8 <main>
 1e0:	200002b7          	lui	t0,0x20000
 1e4:	00100073          	ebreak

000001e8 <main>:
 1e8:	ee010113          	add	sp,sp,-288 # 4ffee0 <__BSS_END__+0x4fcde0>
 1ec:	10812e23          	sw	s0,284(sp)
 1f0:	11212c23          	sw	s2,280(sp)
 1f4:	11312a23          	sw	s3,276(sp)
 1f8:	11412823          	sw	s4,272(sp)
 1fc:	11512623          	sw	s5,268(sp)
 200:	11612423          	sw	s6,264(sp)
 204:	11712223          	sw	s7,260(sp)
 208:	11812023          	sw	s8,256(sp)
 20c:	0f912e23          	sw	s9,252(sp)
 210:	0fa12c23          	sw	s10,248(sp)
 214:	0fb12a23          	sw	s11,244(sp)
 218:	12010413          	add	s0,sp,288
 21c:	00200793          	li	a5,2
 220:	fcf42623          	sw	a5,-52(s0)
 224:	00400793          	li	a5,4
 228:	fcf42423          	sw	a5,-56(s0)
 22c:	fcc42783          	lw	a5,-52(s0)
 230:	00078513          	mv	a0,a5
 234:	41f7d793          	sra	a5,a5,0x1f
 238:	00078593          	mv	a1,a5
 23c:	fc842783          	lw	a5,-56(s0)
 240:	00078613          	mv	a2,a5
 244:	41f7d793          	sra	a5,a5,0x1f
 248:	00078693          	mv	a3,a5
 24c:	02c58733          	mul	a4,a1,a2
 250:	02a687b3          	mul	a5,a3,a0
 254:	00f70733          	add	a4,a4,a5
 258:	02c507b3          	mul	a5,a0,a2
 25c:	02c538b3          	mulhu	a7,a0,a2
 260:	00078813          	mv	a6,a5
 264:	011707b3          	add	a5,a4,a7
 268:	00078893          	mv	a7,a5
 26c:	fd042023          	sw	a6,-64(s0)
 270:	fd142223          	sw	a7,-60(s0)
 274:	fd042023          	sw	a6,-64(s0)
 278:	fd142223          	sw	a7,-60(s0)
 27c:	00000613          	li	a2,0
 280:	00000693          	li	a3,0
 284:	fcc42023          	sw	a2,-64(s0)
 288:	fcd42223          	sw	a3,-60(s0)
 28c:	fff00793          	li	a5,-1
 290:	fcf42623          	sw	a5,-52(s0)
 294:	fff00793          	li	a5,-1
 298:	fcf42423          	sw	a5,-56(s0)
 29c:	fcc42783          	lw	a5,-52(s0)
 2a0:	00078e13          	mv	t3,a5
 2a4:	41f7d793          	sra	a5,a5,0x1f
 2a8:	00078e93          	mv	t4,a5
 2ac:	fc842783          	lw	a5,-56(s0)
 2b0:	00078313          	mv	t1,a5
 2b4:	41f7d793          	sra	a5,a5,0x1f
 2b8:	00078393          	mv	t2,a5
 2bc:	026e8733          	mul	a4,t4,t1
 2c0:	03c387b3          	mul	a5,t2,t3
 2c4:	00f70733          	add	a4,a4,a5
 2c8:	026e07b3          	mul	a5,t3,t1
 2cc:	026e3fb3          	mulhu	t6,t3,t1
 2d0:	00078f13          	mv	t5,a5
 2d4:	01f707b3          	add	a5,a4,t6
 2d8:	00078f93          	mv	t6,a5
 2dc:	fde42023          	sw	t5,-64(s0)
 2e0:	fdf42223          	sw	t6,-60(s0)
 2e4:	fde42023          	sw	t5,-64(s0)
 2e8:	fdf42223          	sw	t6,-60(s0)
 2ec:	fcc42023          	sw	a2,-64(s0)
 2f0:	fcd42223          	sw	a3,-60(s0)
 2f4:	fff00793          	li	a5,-1
 2f8:	fcf42623          	sw	a5,-52(s0)
 2fc:	00100793          	li	a5,1
 300:	fcf42423          	sw	a5,-56(s0)
 304:	fcc42783          	lw	a5,-52(s0)
 308:	00078a13          	mv	s4,a5
 30c:	41f7d793          	sra	a5,a5,0x1f
 310:	00078a93          	mv	s5,a5
 314:	fc842783          	lw	a5,-56(s0)
 318:	00078913          	mv	s2,a5
 31c:	41f7d793          	sra	a5,a5,0x1f
 320:	00078993          	mv	s3,a5
 324:	032a8733          	mul	a4,s5,s2
 328:	034987b3          	mul	a5,s3,s4
 32c:	00f70733          	add	a4,a4,a5
 330:	032a07b3          	mul	a5,s4,s2
 334:	032a3bb3          	mulhu	s7,s4,s2
 338:	00078b13          	mv	s6,a5
 33c:	017707b3          	add	a5,a4,s7
 340:	00078b93          	mv	s7,a5
 344:	fd642023          	sw	s6,-64(s0)
 348:	fd742223          	sw	s7,-60(s0)
 34c:	fd642023          	sw	s6,-64(s0)
 350:	fd742223          	sw	s7,-60(s0)
 354:	fcc42023          	sw	a2,-64(s0)
 358:	fcd42223          	sw	a3,-60(s0)
 35c:	fff00793          	li	a5,-1
 360:	fcf42623          	sw	a5,-52(s0)
 364:	00a00793          	li	a5,10
 368:	fcf42423          	sw	a5,-56(s0)
 36c:	fcc42783          	lw	a5,-52(s0)
 370:	00078d13          	mv	s10,a5
 374:	41f7d793          	sra	a5,a5,0x1f
 378:	00078d93          	mv	s11,a5
 37c:	fc842783          	lw	a5,-56(s0)
 380:	00078c13          	mv	s8,a5
 384:	41f7d793          	sra	a5,a5,0x1f
 388:	00078c93          	mv	s9,a5
 38c:	038d8733          	mul	a4,s11,s8
 390:	03ac87b3          	mul	a5,s9,s10
 394:	00f70733          	add	a4,a4,a5
 398:	038d07b3          	mul	a5,s10,s8
 39c:	038d35b3          	mulhu	a1,s10,s8
 3a0:	fab42e23          	sw	a1,-68(s0)
 3a4:	faf42c23          	sw	a5,-72(s0)
 3a8:	fbc42783          	lw	a5,-68(s0)
 3ac:	00f707b3          	add	a5,a4,a5
 3b0:	faf42e23          	sw	a5,-68(s0)
 3b4:	fb842783          	lw	a5,-72(s0)
 3b8:	fbc42803          	lw	a6,-68(s0)
 3bc:	fcf42023          	sw	a5,-64(s0)
 3c0:	fd042223          	sw	a6,-60(s0)
 3c4:	fcf42023          	sw	a5,-64(s0)
 3c8:	fd042223          	sw	a6,-60(s0)
 3cc:	fcc42023          	sw	a2,-64(s0)
 3d0:	fcd42223          	sw	a3,-60(s0)
 3d4:	ffe00793          	li	a5,-2
 3d8:	fcf42623          	sw	a5,-52(s0)
 3dc:	ffc00793          	li	a5,-4
 3e0:	fcf42423          	sw	a5,-56(s0)
 3e4:	fcc42783          	lw	a5,-52(s0)
 3e8:	f6f42423          	sw	a5,-152(s0)
 3ec:	41f7d793          	sra	a5,a5,0x1f
 3f0:	f6f42623          	sw	a5,-148(s0)
 3f4:	fc842783          	lw	a5,-56(s0)
 3f8:	f6f42023          	sw	a5,-160(s0)
 3fc:	41f7d793          	sra	a5,a5,0x1f
 400:	f6f42223          	sw	a5,-156(s0)
 404:	f6842303          	lw	t1,-152(s0)
 408:	f6c42383          	lw	t2,-148(s0)
 40c:	00038793          	mv	a5,t2
 410:	f6042803          	lw	a6,-160(s0)
 414:	f6442883          	lw	a7,-156(s0)
 418:	00080713          	mv	a4,a6
 41c:	02e78733          	mul	a4,a5,a4
 420:	00088793          	mv	a5,a7
 424:	00030593          	mv	a1,t1
 428:	02b787b3          	mul	a5,a5,a1
 42c:	00f70733          	add	a4,a4,a5
 430:	00030793          	mv	a5,t1
 434:	00080593          	mv	a1,a6
 438:	02b787b3          	mul	a5,a5,a1
 43c:	00030593          	mv	a1,t1
 440:	00080513          	mv	a0,a6
 444:	02a5b5b3          	mulhu	a1,a1,a0
 448:	fab42a23          	sw	a1,-76(s0)
 44c:	faf42823          	sw	a5,-80(s0)
 450:	fb442783          	lw	a5,-76(s0)
 454:	00f707b3          	add	a5,a4,a5
 458:	faf42a23          	sw	a5,-76(s0)
 45c:	fb042783          	lw	a5,-80(s0)
 460:	fb442803          	lw	a6,-76(s0)
 464:	fcf42023          	sw	a5,-64(s0)
 468:	fd042223          	sw	a6,-60(s0)
 46c:	fcf42023          	sw	a5,-64(s0)
 470:	fd042223          	sw	a6,-60(s0)
 474:	fcc42023          	sw	a2,-64(s0)
 478:	fcd42223          	sw	a3,-60(s0)
 47c:	00a00793          	li	a5,10
 480:	fcf42623          	sw	a5,-52(s0)
 484:	00b00793          	li	a5,11
 488:	fcf42423          	sw	a5,-56(s0)
 48c:	fcc42783          	lw	a5,-52(s0)
 490:	f4f42c23          	sw	a5,-168(s0)
 494:	41f7d793          	sra	a5,a5,0x1f
 498:	f4f42e23          	sw	a5,-164(s0)
 49c:	fc842783          	lw	a5,-56(s0)
 4a0:	f4f42823          	sw	a5,-176(s0)
 4a4:	41f7d793          	sra	a5,a5,0x1f
 4a8:	f4f42a23          	sw	a5,-172(s0)
 4ac:	f5842303          	lw	t1,-168(s0)
 4b0:	f5c42383          	lw	t2,-164(s0)
 4b4:	00038793          	mv	a5,t2
 4b8:	f5042803          	lw	a6,-176(s0)
 4bc:	f5442883          	lw	a7,-172(s0)
 4c0:	00080713          	mv	a4,a6
 4c4:	02e78733          	mul	a4,a5,a4
 4c8:	00088793          	mv	a5,a7
 4cc:	00030593          	mv	a1,t1
 4d0:	02b787b3          	mul	a5,a5,a1
 4d4:	00f70733          	add	a4,a4,a5
 4d8:	00030793          	mv	a5,t1
 4dc:	00080593          	mv	a1,a6
 4e0:	02b787b3          	mul	a5,a5,a1
 4e4:	00030593          	mv	a1,t1
 4e8:	00080513          	mv	a0,a6
 4ec:	02a5b5b3          	mulhu	a1,a1,a0
 4f0:	fab42623          	sw	a1,-84(s0)
 4f4:	faf42423          	sw	a5,-88(s0)
 4f8:	fac42783          	lw	a5,-84(s0)
 4fc:	00f707b3          	add	a5,a4,a5
 500:	faf42623          	sw	a5,-84(s0)
 504:	fa842783          	lw	a5,-88(s0)
 508:	fac42803          	lw	a6,-84(s0)
 50c:	fcf42023          	sw	a5,-64(s0)
 510:	fd042223          	sw	a6,-60(s0)
 514:	fcf42023          	sw	a5,-64(s0)
 518:	fd042223          	sw	a6,-60(s0)
 51c:	fcc42023          	sw	a2,-64(s0)
 520:	fcd42223          	sw	a3,-60(s0)
 524:	ff600793          	li	a5,-10
 528:	fcf42623          	sw	a5,-52(s0)
 52c:	00b00793          	li	a5,11
 530:	fcf42423          	sw	a5,-56(s0)
 534:	fcc42783          	lw	a5,-52(s0)
 538:	f4f42423          	sw	a5,-184(s0)
 53c:	41f7d793          	sra	a5,a5,0x1f
 540:	f4f42623          	sw	a5,-180(s0)
 544:	fc842783          	lw	a5,-56(s0)
 548:	f4f42023          	sw	a5,-192(s0)
 54c:	41f7d793          	sra	a5,a5,0x1f
 550:	f4f42223          	sw	a5,-188(s0)
 554:	f4842303          	lw	t1,-184(s0)
 558:	f4c42383          	lw	t2,-180(s0)
 55c:	00038793          	mv	a5,t2
 560:	f4042803          	lw	a6,-192(s0)
 564:	f4442883          	lw	a7,-188(s0)
 568:	00080713          	mv	a4,a6
 56c:	02e78733          	mul	a4,a5,a4
 570:	00088793          	mv	a5,a7
 574:	00030593          	mv	a1,t1
 578:	02b787b3          	mul	a5,a5,a1
 57c:	00f70733          	add	a4,a4,a5
 580:	00030793          	mv	a5,t1
 584:	00080593          	mv	a1,a6
 588:	02b787b3          	mul	a5,a5,a1
 58c:	00030593          	mv	a1,t1
 590:	00080513          	mv	a0,a6
 594:	02a5b5b3          	mulhu	a1,a1,a0
 598:	fab42223          	sw	a1,-92(s0)
 59c:	faf42023          	sw	a5,-96(s0)
 5a0:	fa442783          	lw	a5,-92(s0)
 5a4:	00f707b3          	add	a5,a4,a5
 5a8:	faf42223          	sw	a5,-92(s0)
 5ac:	fa042783          	lw	a5,-96(s0)
 5b0:	fa442803          	lw	a6,-92(s0)
 5b4:	fcf42023          	sw	a5,-64(s0)
 5b8:	fd042223          	sw	a6,-60(s0)
 5bc:	fcf42023          	sw	a5,-64(s0)
 5c0:	fd042223          	sw	a6,-60(s0)
 5c4:	fcc42023          	sw	a2,-64(s0)
 5c8:	fcd42223          	sw	a3,-60(s0)
 5cc:	0000f7b7          	lui	a5,0xf
 5d0:	fcf42623          	sw	a5,-52(s0)
 5d4:	0000f7b7          	lui	a5,0xf
 5d8:	00178793          	add	a5,a5,1 # f001 <__BSS_END__+0xbf01>
 5dc:	fcf42423          	sw	a5,-56(s0)
 5e0:	fcc42783          	lw	a5,-52(s0)
 5e4:	f2f42c23          	sw	a5,-200(s0)
 5e8:	41f7d793          	sra	a5,a5,0x1f
 5ec:	f2f42e23          	sw	a5,-196(s0)
 5f0:	fc842783          	lw	a5,-56(s0)
 5f4:	f2f42823          	sw	a5,-208(s0)
 5f8:	41f7d793          	sra	a5,a5,0x1f
 5fc:	f2f42a23          	sw	a5,-204(s0)
 600:	f3842303          	lw	t1,-200(s0)
 604:	f3c42383          	lw	t2,-196(s0)
 608:	00038793          	mv	a5,t2
 60c:	f3042803          	lw	a6,-208(s0)
 610:	f3442883          	lw	a7,-204(s0)
 614:	00080713          	mv	a4,a6
 618:	02e78733          	mul	a4,a5,a4
 61c:	00088793          	mv	a5,a7
 620:	00030593          	mv	a1,t1
 624:	02b787b3          	mul	a5,a5,a1
 628:	00f70733          	add	a4,a4,a5
 62c:	00030793          	mv	a5,t1
 630:	00080593          	mv	a1,a6
 634:	02b787b3          	mul	a5,a5,a1
 638:	00030593          	mv	a1,t1
 63c:	00080513          	mv	a0,a6
 640:	02a5b5b3          	mulhu	a1,a1,a0
 644:	f8b42e23          	sw	a1,-100(s0)
 648:	f8f42c23          	sw	a5,-104(s0)
 64c:	f9c42783          	lw	a5,-100(s0)
 650:	00f707b3          	add	a5,a4,a5
 654:	f8f42e23          	sw	a5,-100(s0)
 658:	f9842783          	lw	a5,-104(s0)
 65c:	f9c42803          	lw	a6,-100(s0)
 660:	fcf42023          	sw	a5,-64(s0)
 664:	fd042223          	sw	a6,-60(s0)
 668:	fcf42023          	sw	a5,-64(s0)
 66c:	fd042223          	sw	a6,-60(s0)
 670:	fcc42023          	sw	a2,-64(s0)
 674:	fcd42223          	sw	a3,-60(s0)
 678:	555557b7          	lui	a5,0x55555
 67c:	55578793          	add	a5,a5,1365 # 55555555 <memory_size+0x35555555>
 680:	fcf42623          	sw	a5,-52(s0)
 684:	333337b7          	lui	a5,0x33333
 688:	33378793          	add	a5,a5,819 # 33333333 <memory_size+0x13333333>
 68c:	fcf42423          	sw	a5,-56(s0)
 690:	fcc42783          	lw	a5,-52(s0)
 694:	f2f42423          	sw	a5,-216(s0)
 698:	41f7d793          	sra	a5,a5,0x1f
 69c:	f2f42623          	sw	a5,-212(s0)
 6a0:	fc842783          	lw	a5,-56(s0)
 6a4:	f2f42023          	sw	a5,-224(s0)
 6a8:	41f7d793          	sra	a5,a5,0x1f
 6ac:	f2f42223          	sw	a5,-220(s0)
 6b0:	f2842303          	lw	t1,-216(s0)
 6b4:	f2c42383          	lw	t2,-212(s0)
 6b8:	00038793          	mv	a5,t2
 6bc:	f2042803          	lw	a6,-224(s0)
 6c0:	f2442883          	lw	a7,-220(s0)
 6c4:	00080713          	mv	a4,a6
 6c8:	02e78733          	mul	a4,a5,a4
 6cc:	00088793          	mv	a5,a7
 6d0:	00030593          	mv	a1,t1
 6d4:	02b787b3          	mul	a5,a5,a1
 6d8:	00f70733          	add	a4,a4,a5
 6dc:	00030793          	mv	a5,t1
 6e0:	00080593          	mv	a1,a6
 6e4:	02b787b3          	mul	a5,a5,a1
 6e8:	00030593          	mv	a1,t1
 6ec:	00080513          	mv	a0,a6
 6f0:	02a5b5b3          	mulhu	a1,a1,a0
 6f4:	f8b42a23          	sw	a1,-108(s0)
 6f8:	f8f42823          	sw	a5,-112(s0)
 6fc:	f9442783          	lw	a5,-108(s0)
 700:	00f707b3          	add	a5,a4,a5
 704:	f8f42a23          	sw	a5,-108(s0)
 708:	f9042783          	lw	a5,-112(s0)
 70c:	f9442803          	lw	a6,-108(s0)
 710:	fcf42023          	sw	a5,-64(s0)
 714:	fd042223          	sw	a6,-60(s0)
 718:	fcf42023          	sw	a5,-64(s0)
 71c:	fd042223          	sw	a6,-60(s0)
 720:	fcc42023          	sw	a2,-64(s0)
 724:	fcd42223          	sw	a3,-60(s0)
 728:	000057b7          	lui	a5,0x5
 72c:	35378793          	add	a5,a5,851 # 5353 <__BSS_END__+0x2253>
 730:	fcf42623          	sw	a5,-52(s0)
 734:	000087b7          	lui	a5,0x8
 738:	fcf42423          	sw	a5,-56(s0)
 73c:	fcc42783          	lw	a5,-52(s0)
 740:	f0f42c23          	sw	a5,-232(s0)
 744:	41f7d793          	sra	a5,a5,0x1f
 748:	f0f42e23          	sw	a5,-228(s0)
 74c:	fc842783          	lw	a5,-56(s0)
 750:	f0f42823          	sw	a5,-240(s0)
 754:	41f7d793          	sra	a5,a5,0x1f
 758:	f0f42a23          	sw	a5,-236(s0)
 75c:	f1842303          	lw	t1,-232(s0)
 760:	f1c42383          	lw	t2,-228(s0)
 764:	00038793          	mv	a5,t2
 768:	f1042803          	lw	a6,-240(s0)
 76c:	f1442883          	lw	a7,-236(s0)
 770:	00080713          	mv	a4,a6
 774:	02e78733          	mul	a4,a5,a4
 778:	00088793          	mv	a5,a7
 77c:	00030593          	mv	a1,t1
 780:	02b787b3          	mul	a5,a5,a1
 784:	00f707b3          	add	a5,a4,a5
 788:	00030713          	mv	a4,t1
 78c:	00080593          	mv	a1,a6
 790:	02b70733          	mul	a4,a4,a1
 794:	00030593          	mv	a1,t1
 798:	00080513          	mv	a0,a6
 79c:	02a5b5b3          	mulhu	a1,a1,a0
 7a0:	f8b42623          	sw	a1,-116(s0)
 7a4:	f8e42423          	sw	a4,-120(s0)
 7a8:	f8c42703          	lw	a4,-116(s0)
 7ac:	00e787b3          	add	a5,a5,a4
 7b0:	f8f42623          	sw	a5,-116(s0)
 7b4:	f8842783          	lw	a5,-120(s0)
 7b8:	f8c42803          	lw	a6,-116(s0)
 7bc:	fcf42023          	sw	a5,-64(s0)
 7c0:	fd042223          	sw	a6,-60(s0)
 7c4:	fcf42023          	sw	a5,-64(s0)
 7c8:	fd042223          	sw	a6,-60(s0)
 7cc:	fcc42023          	sw	a2,-64(s0)
 7d0:	fcd42223          	sw	a3,-60(s0)
 7d4:	fffff7b7          	lui	a5,0xfffff
 7d8:	fcf42623          	sw	a5,-52(s0)
 7dc:	fffff7b7          	lui	a5,0xfffff
 7e0:	00178793          	add	a5,a5,1 # fffff001 <memory_size+0xdffff001>
 7e4:	fcf42423          	sw	a5,-56(s0)
 7e8:	fcc42783          	lw	a5,-52(s0)
 7ec:	f0f42423          	sw	a5,-248(s0)
 7f0:	41f7d793          	sra	a5,a5,0x1f
 7f4:	f0f42623          	sw	a5,-244(s0)
 7f8:	fc842783          	lw	a5,-56(s0)
 7fc:	f0f42023          	sw	a5,-256(s0)
 800:	41f7d793          	sra	a5,a5,0x1f
 804:	f0f42223          	sw	a5,-252(s0)
 808:	f0842303          	lw	t1,-248(s0)
 80c:	f0c42383          	lw	t2,-244(s0)
 810:	00038793          	mv	a5,t2
 814:	f0042803          	lw	a6,-256(s0)
 818:	f0442883          	lw	a7,-252(s0)
 81c:	00080713          	mv	a4,a6
 820:	02e78733          	mul	a4,a5,a4
 824:	00088793          	mv	a5,a7
 828:	00030593          	mv	a1,t1
 82c:	02b787b3          	mul	a5,a5,a1
 830:	00f707b3          	add	a5,a4,a5
 834:	00030713          	mv	a4,t1
 838:	00080593          	mv	a1,a6
 83c:	02b70733          	mul	a4,a4,a1
 840:	00030593          	mv	a1,t1
 844:	00080513          	mv	a0,a6
 848:	02a5b5b3          	mulhu	a1,a1,a0
 84c:	f8b42223          	sw	a1,-124(s0)
 850:	f8e42023          	sw	a4,-128(s0)
 854:	f8442703          	lw	a4,-124(s0)
 858:	00e787b3          	add	a5,a5,a4
 85c:	f8f42223          	sw	a5,-124(s0)
 860:	f8042783          	lw	a5,-128(s0)
 864:	f8442803          	lw	a6,-124(s0)
 868:	fcf42023          	sw	a5,-64(s0)
 86c:	fd042223          	sw	a6,-60(s0)
 870:	fcf42023          	sw	a5,-64(s0)
 874:	fd042223          	sw	a6,-60(s0)
 878:	fcc42023          	sw	a2,-64(s0)
 87c:	fcd42223          	sw	a3,-60(s0)
 880:	000057b7          	lui	a5,0x5
 884:	55578793          	add	a5,a5,1365 # 5555 <__BSS_END__+0x2455>
 888:	fcf42623          	sw	a5,-52(s0)
 88c:	333307b7          	lui	a5,0x33330
 890:	fcf42423          	sw	a5,-56(s0)
 894:	fcc42783          	lw	a5,-52(s0)
 898:	eef42c23          	sw	a5,-264(s0)
 89c:	41f7d793          	sra	a5,a5,0x1f
 8a0:	eef42e23          	sw	a5,-260(s0)
 8a4:	fc842783          	lw	a5,-56(s0)
 8a8:	eef42823          	sw	a5,-272(s0)
 8ac:	41f7d793          	sra	a5,a5,0x1f
 8b0:	eef42a23          	sw	a5,-268(s0)
 8b4:	ef842303          	lw	t1,-264(s0)
 8b8:	efc42383          	lw	t2,-260(s0)
 8bc:	00038793          	mv	a5,t2
 8c0:	ef042803          	lw	a6,-272(s0)
 8c4:	ef442883          	lw	a7,-268(s0)
 8c8:	00080713          	mv	a4,a6
 8cc:	02e78733          	mul	a4,a5,a4
 8d0:	00088793          	mv	a5,a7
 8d4:	00030593          	mv	a1,t1
 8d8:	02b787b3          	mul	a5,a5,a1
 8dc:	00f707b3          	add	a5,a4,a5
 8e0:	00030713          	mv	a4,t1
 8e4:	00080593          	mv	a1,a6
 8e8:	02b70733          	mul	a4,a4,a1
 8ec:	00030593          	mv	a1,t1
 8f0:	00080513          	mv	a0,a6
 8f4:	02a5b5b3          	mulhu	a1,a1,a0
 8f8:	f6b42e23          	sw	a1,-132(s0)
 8fc:	f6e42c23          	sw	a4,-136(s0)
 900:	f7c42703          	lw	a4,-132(s0)
 904:	00e787b3          	add	a5,a5,a4
 908:	f6f42e23          	sw	a5,-132(s0)
 90c:	f7842783          	lw	a5,-136(s0)
 910:	f7c42803          	lw	a6,-132(s0)
 914:	fcf42023          	sw	a5,-64(s0)
 918:	fd042223          	sw	a6,-60(s0)
 91c:	fcf42023          	sw	a5,-64(s0)
 920:	fd042223          	sw	a6,-60(s0)
 924:	fcc42023          	sw	a2,-64(s0)
 928:	fcd42223          	sw	a3,-60(s0)
 92c:	535357b7          	lui	a5,0x53535
 930:	35378793          	add	a5,a5,851 # 53535353 <memory_size+0x33535353>
 934:	fcf42623          	sw	a5,-52(s0)
 938:	800087b7          	lui	a5,0x80008
 93c:	fcf42423          	sw	a5,-56(s0)
 940:	fcc42783          	lw	a5,-52(s0)
 944:	eef42423          	sw	a5,-280(s0)
 948:	41f7d793          	sra	a5,a5,0x1f
 94c:	eef42623          	sw	a5,-276(s0)
 950:	fc842783          	lw	a5,-56(s0)
 954:	eef42023          	sw	a5,-288(s0)
 958:	41f7d793          	sra	a5,a5,0x1f
 95c:	eef42223          	sw	a5,-284(s0)
 960:	ee842303          	lw	t1,-280(s0)
 964:	eec42383          	lw	t2,-276(s0)
 968:	00038793          	mv	a5,t2
 96c:	ee042803          	lw	a6,-288(s0)
 970:	ee442883          	lw	a7,-284(s0)
 974:	00080713          	mv	a4,a6
 978:	02e78733          	mul	a4,a5,a4
 97c:	00088793          	mv	a5,a7
 980:	00030593          	mv	a1,t1
 984:	02b787b3          	mul	a5,a5,a1
 988:	00f707b3          	add	a5,a4,a5
 98c:	00030713          	mv	a4,t1
 990:	00080593          	mv	a1,a6
 994:	02b70733          	mul	a4,a4,a1
 998:	00030593          	mv	a1,t1
 99c:	00080513          	mv	a0,a6
 9a0:	02a5b5b3          	mulhu	a1,a1,a0
 9a4:	f6b42a23          	sw	a1,-140(s0)
 9a8:	f6e42823          	sw	a4,-144(s0)
 9ac:	f7442703          	lw	a4,-140(s0)
 9b0:	00e787b3          	add	a5,a5,a4
 9b4:	f6f42a23          	sw	a5,-140(s0)
 9b8:	f7042783          	lw	a5,-144(s0)
 9bc:	f7442803          	lw	a6,-140(s0)
 9c0:	fcf42023          	sw	a5,-64(s0)
 9c4:	fd042223          	sw	a6,-60(s0)
 9c8:	fcf42023          	sw	a5,-64(s0)
 9cc:	fd042223          	sw	a6,-60(s0)
 9d0:	fcc42023          	sw	a2,-64(s0)
 9d4:	fcd42223          	sw	a3,-60(s0)
 9d8:	00000793          	li	a5,0
 9dc:	00078513          	mv	a0,a5
 9e0:	11c12403          	lw	s0,284(sp)
 9e4:	11812903          	lw	s2,280(sp)
 9e8:	11412983          	lw	s3,276(sp)
 9ec:	11012a03          	lw	s4,272(sp)
 9f0:	10c12a83          	lw	s5,268(sp)
 9f4:	10812b03          	lw	s6,264(sp)
 9f8:	10412b83          	lw	s7,260(sp)
 9fc:	10012c03          	lw	s8,256(sp)
 a00:	0fc12c83          	lw	s9,252(sp)
 a04:	0f812d03          	lw	s10,248(sp)
 a08:	0f412d83          	lw	s11,244(sp)
 a0c:	12010113          	add	sp,sp,288
 a10:	00008067          	ret
