
test/073.bool.riscv:     file format elf32-littleriscv


Disassembly of section .text:

000001d8 <_start>:
 1d8:	00500137          	lui	sp,0x500
 1dc:	00c000ef          	jal	1e8 <main>
 1e0:	200002b7          	lui	t0,0x20000
 1e4:	00100073          	ebreak

000001e8 <main>:
 1e8:	fc010113          	add	sp,sp,-64 # 4fffc0 <__BSS_END__+0x4fcec0>
 1ec:	02812e23          	sw	s0,60(sp)
 1f0:	04010413          	add	s0,sp,64
 1f4:	fff00793          	li	a5,-1
 1f8:	fef42623          	sw	a5,-20(s0)
 1fc:	fff00793          	li	a5,-1
 200:	fef42423          	sw	a5,-24(s0)
 204:	fec42703          	lw	a4,-20(s0)
 208:	fe842783          	lw	a5,-24(s0)
 20c:	00f767b3          	or	a5,a4,a5
 210:	fef42223          	sw	a5,-28(s0)
 214:	fe042223          	sw	zero,-28(s0)
 218:	fec42703          	lw	a4,-20(s0)
 21c:	fe842783          	lw	a5,-24(s0)
 220:	00f777b3          	and	a5,a4,a5
 224:	fef42023          	sw	a5,-32(s0)
 228:	fe042023          	sw	zero,-32(s0)
 22c:	fec42703          	lw	a4,-20(s0)
 230:	fe842783          	lw	a5,-24(s0)
 234:	00f747b3          	xor	a5,a4,a5
 238:	fcf42e23          	sw	a5,-36(s0)
 23c:	fc042e23          	sw	zero,-36(s0)
 240:	fec42703          	lw	a4,-20(s0)
 244:	fe842783          	lw	a5,-24(s0)
 248:	00f767b3          	or	a5,a4,a5
 24c:	fff7c793          	not	a5,a5
 250:	fcf42c23          	sw	a5,-40(s0)
 254:	fc042c23          	sw	zero,-40(s0)
 258:	fec42703          	lw	a4,-20(s0)
 25c:	fe842783          	lw	a5,-24(s0)
 260:	00f777b3          	and	a5,a4,a5
 264:	fff7c793          	not	a5,a5
 268:	fcf42a23          	sw	a5,-44(s0)
 26c:	fc042a23          	sw	zero,-44(s0)
 270:	fec42703          	lw	a4,-20(s0)
 274:	fe842783          	lw	a5,-24(s0)
 278:	00f747b3          	xor	a5,a4,a5
 27c:	fff7c793          	not	a5,a5
 280:	fcf42823          	sw	a5,-48(s0)
 284:	fc042823          	sw	zero,-48(s0)
 288:	fec42783          	lw	a5,-20(s0)
 28c:	fff7c793          	not	a5,a5
 290:	fcf42623          	sw	a5,-52(s0)
 294:	fc042623          	sw	zero,-52(s0)
 298:	fe842783          	lw	a5,-24(s0)
 29c:	fff7c793          	not	a5,a5
 2a0:	fcf42423          	sw	a5,-56(s0)
 2a4:	fc042423          	sw	zero,-56(s0)
 2a8:	0f0f17b7          	lui	a5,0xf0f1
 2ac:	f0f78793          	add	a5,a5,-241 # f0f0f0f <__BSS_END__+0xf0ede0f>
 2b0:	fef42623          	sw	a5,-20(s0)
 2b4:	f0f0f7b7          	lui	a5,0xf0f0f
 2b8:	0f078793          	add	a5,a5,240 # f0f0f0f0 <memory_size+0xd0f0f0f0>
 2bc:	fef42423          	sw	a5,-24(s0)
 2c0:	fec42703          	lw	a4,-20(s0)
 2c4:	fe842783          	lw	a5,-24(s0)
 2c8:	00f767b3          	or	a5,a4,a5
 2cc:	fef42223          	sw	a5,-28(s0)
 2d0:	fe042223          	sw	zero,-28(s0)
 2d4:	fec42703          	lw	a4,-20(s0)
 2d8:	fe842783          	lw	a5,-24(s0)
 2dc:	00f777b3          	and	a5,a4,a5
 2e0:	fef42023          	sw	a5,-32(s0)
 2e4:	fe042023          	sw	zero,-32(s0)
 2e8:	fec42703          	lw	a4,-20(s0)
 2ec:	fe842783          	lw	a5,-24(s0)
 2f0:	00f747b3          	xor	a5,a4,a5
 2f4:	fcf42e23          	sw	a5,-36(s0)
 2f8:	fc042e23          	sw	zero,-36(s0)
 2fc:	fec42703          	lw	a4,-20(s0)
 300:	fe842783          	lw	a5,-24(s0)
 304:	00f767b3          	or	a5,a4,a5
 308:	fff7c793          	not	a5,a5
 30c:	fcf42c23          	sw	a5,-40(s0)
 310:	fc042c23          	sw	zero,-40(s0)
 314:	fec42703          	lw	a4,-20(s0)
 318:	fe842783          	lw	a5,-24(s0)
 31c:	00f777b3          	and	a5,a4,a5
 320:	fff7c793          	not	a5,a5
 324:	fcf42a23          	sw	a5,-44(s0)
 328:	fc042a23          	sw	zero,-44(s0)
 32c:	fec42703          	lw	a4,-20(s0)
 330:	fe842783          	lw	a5,-24(s0)
 334:	00f747b3          	xor	a5,a4,a5
 338:	fff7c793          	not	a5,a5
 33c:	fcf42823          	sw	a5,-48(s0)
 340:	fc042823          	sw	zero,-48(s0)
 344:	fec42783          	lw	a5,-20(s0)
 348:	fff7c793          	not	a5,a5
 34c:	fcf42623          	sw	a5,-52(s0)
 350:	fc042623          	sw	zero,-52(s0)
 354:	fe842783          	lw	a5,-24(s0)
 358:	fff7c793          	not	a5,a5
 35c:	fcf42423          	sw	a5,-56(s0)
 360:	fc042423          	sw	zero,-56(s0)
 364:	fff00793          	li	a5,-1
 368:	fef42623          	sw	a5,-20(s0)
 36c:	fe042423          	sw	zero,-24(s0)
 370:	fec42703          	lw	a4,-20(s0)
 374:	fe842783          	lw	a5,-24(s0)
 378:	00f767b3          	or	a5,a4,a5
 37c:	fef42223          	sw	a5,-28(s0)
 380:	fe042223          	sw	zero,-28(s0)
 384:	fec42703          	lw	a4,-20(s0)
 388:	fe842783          	lw	a5,-24(s0)
 38c:	00f777b3          	and	a5,a4,a5
 390:	fef42023          	sw	a5,-32(s0)
 394:	fe042023          	sw	zero,-32(s0)
 398:	fec42703          	lw	a4,-20(s0)
 39c:	fe842783          	lw	a5,-24(s0)
 3a0:	00f747b3          	xor	a5,a4,a5
 3a4:	fcf42e23          	sw	a5,-36(s0)
 3a8:	fc042e23          	sw	zero,-36(s0)
 3ac:	fec42703          	lw	a4,-20(s0)
 3b0:	fe842783          	lw	a5,-24(s0)
 3b4:	00f767b3          	or	a5,a4,a5
 3b8:	fff7c793          	not	a5,a5
 3bc:	fcf42c23          	sw	a5,-40(s0)
 3c0:	fc042c23          	sw	zero,-40(s0)
 3c4:	fec42703          	lw	a4,-20(s0)
 3c8:	fe842783          	lw	a5,-24(s0)
 3cc:	00f777b3          	and	a5,a4,a5
 3d0:	fff7c793          	not	a5,a5
 3d4:	fcf42a23          	sw	a5,-44(s0)
 3d8:	fc042a23          	sw	zero,-44(s0)
 3dc:	fec42703          	lw	a4,-20(s0)
 3e0:	fe842783          	lw	a5,-24(s0)
 3e4:	00f747b3          	xor	a5,a4,a5
 3e8:	fff7c793          	not	a5,a5
 3ec:	fcf42823          	sw	a5,-48(s0)
 3f0:	fc042823          	sw	zero,-48(s0)
 3f4:	fec42783          	lw	a5,-20(s0)
 3f8:	fff7c793          	not	a5,a5
 3fc:	fcf42623          	sw	a5,-52(s0)
 400:	fc042623          	sw	zero,-52(s0)
 404:	fe842783          	lw	a5,-24(s0)
 408:	fff7c793          	not	a5,a5
 40c:	fcf42423          	sw	a5,-56(s0)
 410:	fc042423          	sw	zero,-56(s0)
 414:	555557b7          	lui	a5,0x55555
 418:	55578793          	add	a5,a5,1365 # 55555555 <memory_size+0x35555555>
 41c:	fef42623          	sw	a5,-20(s0)
 420:	aaaab7b7          	lui	a5,0xaaaab
 424:	aaa78793          	add	a5,a5,-1366 # aaaaaaaa <memory_size+0x8aaaaaaa>
 428:	fef42423          	sw	a5,-24(s0)
 42c:	fec42703          	lw	a4,-20(s0)
 430:	fe842783          	lw	a5,-24(s0)
 434:	00f767b3          	or	a5,a4,a5
 438:	fef42223          	sw	a5,-28(s0)
 43c:	fe042223          	sw	zero,-28(s0)
 440:	fec42703          	lw	a4,-20(s0)
 444:	fe842783          	lw	a5,-24(s0)
 448:	00f777b3          	and	a5,a4,a5
 44c:	fef42023          	sw	a5,-32(s0)
 450:	fe042023          	sw	zero,-32(s0)
 454:	fec42703          	lw	a4,-20(s0)
 458:	fe842783          	lw	a5,-24(s0)
 45c:	00f747b3          	xor	a5,a4,a5
 460:	fcf42e23          	sw	a5,-36(s0)
 464:	fc042e23          	sw	zero,-36(s0)
 468:	fec42703          	lw	a4,-20(s0)
 46c:	fe842783          	lw	a5,-24(s0)
 470:	00f767b3          	or	a5,a4,a5
 474:	fff7c793          	not	a5,a5
 478:	fcf42c23          	sw	a5,-40(s0)
 47c:	fc042c23          	sw	zero,-40(s0)
 480:	fec42703          	lw	a4,-20(s0)
 484:	fe842783          	lw	a5,-24(s0)
 488:	00f777b3          	and	a5,a4,a5
 48c:	fff7c793          	not	a5,a5
 490:	fcf42a23          	sw	a5,-44(s0)
 494:	fc042a23          	sw	zero,-44(s0)
 498:	fec42703          	lw	a4,-20(s0)
 49c:	fe842783          	lw	a5,-24(s0)
 4a0:	00f747b3          	xor	a5,a4,a5
 4a4:	fff7c793          	not	a5,a5
 4a8:	fcf42823          	sw	a5,-48(s0)
 4ac:	fc042823          	sw	zero,-48(s0)
 4b0:	fec42783          	lw	a5,-20(s0)
 4b4:	fff7c793          	not	a5,a5
 4b8:	fcf42623          	sw	a5,-52(s0)
 4bc:	fc042623          	sw	zero,-52(s0)
 4c0:	fe842783          	lw	a5,-24(s0)
 4c4:	fff7c793          	not	a5,a5
 4c8:	fcf42423          	sw	a5,-56(s0)
 4cc:	fc042423          	sw	zero,-56(s0)
 4d0:	fe042623          	sw	zero,-20(s0)
 4d4:	fe042423          	sw	zero,-24(s0)
 4d8:	fec42703          	lw	a4,-20(s0)
 4dc:	fe842783          	lw	a5,-24(s0)
 4e0:	00f767b3          	or	a5,a4,a5
 4e4:	fef42223          	sw	a5,-28(s0)
 4e8:	fe042223          	sw	zero,-28(s0)
 4ec:	fec42703          	lw	a4,-20(s0)
 4f0:	fe842783          	lw	a5,-24(s0)
 4f4:	00f777b3          	and	a5,a4,a5
 4f8:	fef42023          	sw	a5,-32(s0)
 4fc:	fe042023          	sw	zero,-32(s0)
 500:	fec42703          	lw	a4,-20(s0)
 504:	fe842783          	lw	a5,-24(s0)
 508:	00f747b3          	xor	a5,a4,a5
 50c:	fcf42e23          	sw	a5,-36(s0)
 510:	fc042e23          	sw	zero,-36(s0)
 514:	fec42703          	lw	a4,-20(s0)
 518:	fe842783          	lw	a5,-24(s0)
 51c:	00f767b3          	or	a5,a4,a5
 520:	fff7c793          	not	a5,a5
 524:	fcf42c23          	sw	a5,-40(s0)
 528:	fc042c23          	sw	zero,-40(s0)
 52c:	fec42703          	lw	a4,-20(s0)
 530:	fe842783          	lw	a5,-24(s0)
 534:	00f777b3          	and	a5,a4,a5
 538:	fff7c793          	not	a5,a5
 53c:	fcf42a23          	sw	a5,-44(s0)
 540:	fc042a23          	sw	zero,-44(s0)
 544:	fec42703          	lw	a4,-20(s0)
 548:	fe842783          	lw	a5,-24(s0)
 54c:	00f747b3          	xor	a5,a4,a5
 550:	fff7c793          	not	a5,a5
 554:	fcf42823          	sw	a5,-48(s0)
 558:	fc042823          	sw	zero,-48(s0)
 55c:	fec42783          	lw	a5,-20(s0)
 560:	fff7c793          	not	a5,a5
 564:	fcf42623          	sw	a5,-52(s0)
 568:	fc042623          	sw	zero,-52(s0)
 56c:	fe842783          	lw	a5,-24(s0)
 570:	fff7c793          	not	a5,a5
 574:	fcf42423          	sw	a5,-56(s0)
 578:	fc042423          	sw	zero,-56(s0)
 57c:	00000793          	li	a5,0
 580:	00078513          	mv	a0,a5
 584:	03c12403          	lw	s0,60(sp)
 588:	04010113          	add	sp,sp,64
 58c:	00008067          	ret
