
test/081.shift.riscv:     file format elf32-littleriscv


Disassembly of section .text:

000001d8 <_start>:
 1d8:	00500137          	lui	sp,0x500
 1dc:	00c000ef          	jal	1e8 <main>
 1e0:	200002b7          	lui	t0,0x20000
 1e4:	00100073          	ebreak

000001e8 <main>:
 1e8:	fe010113          	add	sp,sp,-32 # 4fffe0 <__BSS_END__+0x4fcee0>
 1ec:	00812e23          	sw	s0,28(sp)
 1f0:	02010413          	add	s0,sp,32
 1f4:	fff00793          	li	a5,-1
 1f8:	fef407a3          	sb	a5,-17(s0)
 1fc:	fef44783          	lbu	a5,-17(s0)
 200:	0017d793          	srl	a5,a5,0x1
 204:	fef407a3          	sb	a5,-17(s0)
 208:	fe0407a3          	sb	zero,-17(s0)
 20c:	fe0407a3          	sb	zero,-17(s0)
 210:	fef44783          	lbu	a5,-17(s0)
 214:	0017d793          	srl	a5,a5,0x1
 218:	fef407a3          	sb	a5,-17(s0)
 21c:	fe0407a3          	sb	zero,-17(s0)
 220:	00100793          	li	a5,1
 224:	fef407a3          	sb	a5,-17(s0)
 228:	fef44783          	lbu	a5,-17(s0)
 22c:	0017d793          	srl	a5,a5,0x1
 230:	fef407a3          	sb	a5,-17(s0)
 234:	fe0407a3          	sb	zero,-17(s0)
 238:	f8000793          	li	a5,-128
 23c:	fef407a3          	sb	a5,-17(s0)
 240:	fef44783          	lbu	a5,-17(s0)
 244:	0017d793          	srl	a5,a5,0x1
 248:	fef407a3          	sb	a5,-17(s0)
 24c:	fe0407a3          	sb	zero,-17(s0)
 250:	faa00793          	li	a5,-86
 254:	fef407a3          	sb	a5,-17(s0)
 258:	fef44783          	lbu	a5,-17(s0)
 25c:	0017d793          	srl	a5,a5,0x1
 260:	fef407a3          	sb	a5,-17(s0)
 264:	fe0407a3          	sb	zero,-17(s0)
 268:	03c00793          	li	a5,60
 26c:	fef407a3          	sb	a5,-17(s0)
 270:	fef44783          	lbu	a5,-17(s0)
 274:	0027d793          	srl	a5,a5,0x2
 278:	fef407a3          	sb	a5,-17(s0)
 27c:	fe0407a3          	sb	zero,-17(s0)
 280:	fff00793          	li	a5,-1
 284:	fef40723          	sb	a5,-18(s0)
 288:	fee40783          	lb	a5,-18(s0)
 28c:	4017d793          	sra	a5,a5,0x1
 290:	fef40723          	sb	a5,-18(s0)
 294:	fe040723          	sb	zero,-18(s0)
 298:	fe040723          	sb	zero,-18(s0)
 29c:	fee40783          	lb	a5,-18(s0)
 2a0:	4017d793          	sra	a5,a5,0x1
 2a4:	fef40723          	sb	a5,-18(s0)
 2a8:	fe040723          	sb	zero,-18(s0)
 2ac:	00100793          	li	a5,1
 2b0:	fef40723          	sb	a5,-18(s0)
 2b4:	fee40783          	lb	a5,-18(s0)
 2b8:	4017d793          	sra	a5,a5,0x1
 2bc:	fef40723          	sb	a5,-18(s0)
 2c0:	fe040723          	sb	zero,-18(s0)
 2c4:	f8000793          	li	a5,-128
 2c8:	fef40723          	sb	a5,-18(s0)
 2cc:	fee40783          	lb	a5,-18(s0)
 2d0:	4017d793          	sra	a5,a5,0x1
 2d4:	fef40723          	sb	a5,-18(s0)
 2d8:	fe040723          	sb	zero,-18(s0)
 2dc:	faa00793          	li	a5,-86
 2e0:	fef40723          	sb	a5,-18(s0)
 2e4:	fee40783          	lb	a5,-18(s0)
 2e8:	4017d793          	sra	a5,a5,0x1
 2ec:	fef40723          	sb	a5,-18(s0)
 2f0:	fe040723          	sb	zero,-18(s0)
 2f4:	03c00793          	li	a5,60
 2f8:	fef40723          	sb	a5,-18(s0)
 2fc:	fee40783          	lb	a5,-18(s0)
 300:	4027d793          	sra	a5,a5,0x2
 304:	fef40723          	sb	a5,-18(s0)
 308:	fe040723          	sb	zero,-18(s0)
 30c:	fff00793          	li	a5,-1
 310:	fef407a3          	sb	a5,-17(s0)
 314:	fef44783          	lbu	a5,-17(s0)
 318:	00179793          	sll	a5,a5,0x1
 31c:	fef407a3          	sb	a5,-17(s0)
 320:	fe0407a3          	sb	zero,-17(s0)
 324:	fe0407a3          	sb	zero,-17(s0)
 328:	fef44783          	lbu	a5,-17(s0)
 32c:	00179793          	sll	a5,a5,0x1
 330:	fef407a3          	sb	a5,-17(s0)
 334:	fe0407a3          	sb	zero,-17(s0)
 338:	00100793          	li	a5,1
 33c:	fef407a3          	sb	a5,-17(s0)
 340:	fef44783          	lbu	a5,-17(s0)
 344:	00179793          	sll	a5,a5,0x1
 348:	fef407a3          	sb	a5,-17(s0)
 34c:	fe0407a3          	sb	zero,-17(s0)
 350:	f8000793          	li	a5,-128
 354:	fef407a3          	sb	a5,-17(s0)
 358:	fef44783          	lbu	a5,-17(s0)
 35c:	00179793          	sll	a5,a5,0x1
 360:	fef407a3          	sb	a5,-17(s0)
 364:	fe0407a3          	sb	zero,-17(s0)
 368:	faa00793          	li	a5,-86
 36c:	fef407a3          	sb	a5,-17(s0)
 370:	fef44783          	lbu	a5,-17(s0)
 374:	00179793          	sll	a5,a5,0x1
 378:	fef407a3          	sb	a5,-17(s0)
 37c:	fe0407a3          	sb	zero,-17(s0)
 380:	03c00793          	li	a5,60
 384:	fef407a3          	sb	a5,-17(s0)
 388:	fef44783          	lbu	a5,-17(s0)
 38c:	00279793          	sll	a5,a5,0x2
 390:	fef407a3          	sb	a5,-17(s0)
 394:	fe0407a3          	sb	zero,-17(s0)
 398:	fff00793          	li	a5,-1
 39c:	fef40723          	sb	a5,-18(s0)
 3a0:	fee40783          	lb	a5,-18(s0)
 3a4:	00179793          	sll	a5,a5,0x1
 3a8:	fef40723          	sb	a5,-18(s0)
 3ac:	fe040723          	sb	zero,-18(s0)
 3b0:	fe040723          	sb	zero,-18(s0)
 3b4:	fee40783          	lb	a5,-18(s0)
 3b8:	00179793          	sll	a5,a5,0x1
 3bc:	fef40723          	sb	a5,-18(s0)
 3c0:	fe040723          	sb	zero,-18(s0)
 3c4:	00100793          	li	a5,1
 3c8:	fef40723          	sb	a5,-18(s0)
 3cc:	fee40783          	lb	a5,-18(s0)
 3d0:	00179793          	sll	a5,a5,0x1
 3d4:	fef40723          	sb	a5,-18(s0)
 3d8:	fe040723          	sb	zero,-18(s0)
 3dc:	f8000793          	li	a5,-128
 3e0:	fef40723          	sb	a5,-18(s0)
 3e4:	fee40783          	lb	a5,-18(s0)
 3e8:	00179793          	sll	a5,a5,0x1
 3ec:	fef40723          	sb	a5,-18(s0)
 3f0:	fe040723          	sb	zero,-18(s0)
 3f4:	faa00793          	li	a5,-86
 3f8:	fef40723          	sb	a5,-18(s0)
 3fc:	fee40783          	lb	a5,-18(s0)
 400:	00179793          	sll	a5,a5,0x1
 404:	fef40723          	sb	a5,-18(s0)
 408:	fe040723          	sb	zero,-18(s0)
 40c:	03c00793          	li	a5,60
 410:	fef40723          	sb	a5,-18(s0)
 414:	fee40783          	lb	a5,-18(s0)
 418:	00279793          	sll	a5,a5,0x2
 41c:	fef40723          	sb	a5,-18(s0)
 420:	fe040723          	sb	zero,-18(s0)
 424:	00000793          	li	a5,0
 428:	00078513          	mv	a0,a5
 42c:	01c12403          	lw	s0,28(sp)
 430:	02010113          	add	sp,sp,32
 434:	00008067          	ret
