
test/144.array.riscv:     file format elf32-littleriscv


Disassembly of section .text:

000001d8 <_start>:
 1d8:	00500137          	lui	sp,0x500
 1dc:	00c000ef          	jal	1e8 <main>
 1e0:	200002b7          	lui	t0,0x20000
 1e4:	00100073          	ebreak

000001e8 <main>:
 1e8:	f8010113          	add	sp,sp,-128 # 4fff80 <__BSS_END__+0x4fce80>
 1ec:	06112e23          	sw	ra,124(sp)
 1f0:	06812c23          	sw	s0,120(sp)
 1f4:	08010413          	add	s0,sp,128
 1f8:	fffff7b7          	lui	a5,0xfffff
 1fc:	5df78793          	add	a5,a5,1503 # fffff5df <memory_size+0xdffff5df>
 200:	faf41c23          	sh	a5,-72(s0)
 204:	000027b7          	lui	a5,0x2
 208:	44478793          	add	a5,a5,1092 # 2444 <__SDATA_BEGIN__+0x440>
 20c:	faf41d23          	sh	a5,-70(s0)
 210:	000057b7          	lui	a5,0x5
 214:	61278793          	add	a5,a5,1554 # 5612 <__BSS_END__+0x2512>
 218:	faf41e23          	sh	a5,-68(s0)
 21c:	fffff7b7          	lui	a5,0xfffff
 220:	64578793          	add	a5,a5,1605 # fffff645 <memory_size+0xdffff645>
 224:	faf41f23          	sh	a5,-66(s0)
 228:	f8000793          	li	a5,-128
 22c:	fcf41023          	sh	a5,-64(s0)
 230:	000017b7          	lui	a5,0x1
 234:	2dd78793          	add	a5,a5,733 # 12dd <usiBubbleSort+0xd29>
 238:	fcf41123          	sh	a5,-62(s0)
 23c:	000047b7          	lui	a5,0x4
 240:	34378793          	add	a5,a5,835 # 4343 <__BSS_END__+0x1243>
 244:	fcf41223          	sh	a5,-60(s0)
 248:	fffff7b7          	lui	a5,0xfffff
 24c:	16778793          	add	a5,a5,359 # fffff167 <memory_size+0xdffff167>
 250:	fcf41323          	sh	a5,-58(s0)
 254:	fc041423          	sh	zero,-56(s0)
 258:	12300793          	li	a5,291
 25c:	fcf41523          	sh	a5,-54(s0)
 260:	000037b7          	lui	a5,0x3
 264:	30178793          	add	a5,a5,769 # 3301 <__BSS_END__+0x201>
 268:	fcf41623          	sh	a5,-52(s0)
 26c:	000017b7          	lui	a5,0x1
 270:	2f778793          	add	a5,a5,759 # 12f7 <usiBubbleSort+0xd43>
 274:	fcf41723          	sh	a5,-50(s0)
 278:	ffff87b7          	lui	a5,0xffff8
 27c:	74578793          	add	a5,a5,1861 # ffff8745 <memory_size+0xdfff8745>
 280:	fcf41823          	sh	a5,-48(s0)
 284:	ffff87b7          	lui	a5,0xffff8
 288:	28678793          	add	a5,a5,646 # ffff8286 <memory_size+0xdfff8286>
 28c:	fcf41923          	sh	a5,-46(s0)
 290:	000017b7          	lui	a5,0x1
 294:	29678793          	add	a5,a5,662 # 1296 <usiBubbleSort+0xce2>
 298:	fcf41a23          	sh	a5,-44(s0)
 29c:	000037b7          	lui	a5,0x3
 2a0:	45278793          	add	a5,a5,1106 # 3452 <__BSS_END__+0x352>
 2a4:	fcf41b23          	sh	a5,-42(s0)
 2a8:	ffffe7b7          	lui	a5,0xffffe
 2ac:	3ff78793          	add	a5,a5,1023 # ffffe3ff <memory_size+0xdfffe3ff>
 2b0:	fcf41c23          	sh	a5,-40(s0)
 2b4:	000027b7          	lui	a5,0x2
 2b8:	45678793          	add	a5,a5,1110 # 2456 <__SDATA_BEGIN__+0x452>
 2bc:	fcf41d23          	sh	a5,-38(s0)
 2c0:	000067b7          	lui	a5,0x6
 2c4:	72378793          	add	a5,a5,1827 # 6723 <__BSS_END__+0x3623>
 2c8:	fcf41e23          	sh	a5,-36(s0)
 2cc:	000077b7          	lui	a5,0x7
 2d0:	51078793          	add	a5,a5,1296 # 7510 <__BSS_END__+0x4410>
 2d4:	fcf41f23          	sh	a5,-34(s0)
 2d8:	00500793          	li	a5,5
 2dc:	fef41023          	sh	a5,-32(s0)
 2e0:	fffff7b7          	lui	a5,0xfffff
 2e4:	5df78793          	add	a5,a5,1503 # fffff5df <memory_size+0xdffff5df>
 2e8:	f8f41623          	sh	a5,-116(s0)
 2ec:	000027b7          	lui	a5,0x2
 2f0:	44478793          	add	a5,a5,1092 # 2444 <__SDATA_BEGIN__+0x440>
 2f4:	f8f41723          	sh	a5,-114(s0)
 2f8:	000057b7          	lui	a5,0x5
 2fc:	61278793          	add	a5,a5,1554 # 5612 <__BSS_END__+0x2512>
 300:	f8f41823          	sh	a5,-112(s0)
 304:	fffff7b7          	lui	a5,0xfffff
 308:	64578793          	add	a5,a5,1605 # fffff645 <memory_size+0xdffff645>
 30c:	f8f41923          	sh	a5,-110(s0)
 310:	f8000793          	li	a5,-128
 314:	f8f41a23          	sh	a5,-108(s0)
 318:	000017b7          	lui	a5,0x1
 31c:	2dd78793          	add	a5,a5,733 # 12dd <usiBubbleSort+0xd29>
 320:	f8f41b23          	sh	a5,-106(s0)
 324:	000047b7          	lui	a5,0x4
 328:	34378793          	add	a5,a5,835 # 4343 <__BSS_END__+0x1243>
 32c:	f8f41c23          	sh	a5,-104(s0)
 330:	fffff7b7          	lui	a5,0xfffff
 334:	16778793          	add	a5,a5,359 # fffff167 <memory_size+0xdffff167>
 338:	f8f41d23          	sh	a5,-102(s0)
 33c:	f8041e23          	sh	zero,-100(s0)
 340:	12300793          	li	a5,291
 344:	f8f41f23          	sh	a5,-98(s0)
 348:	000037b7          	lui	a5,0x3
 34c:	30178793          	add	a5,a5,769 # 3301 <__BSS_END__+0x201>
 350:	faf41023          	sh	a5,-96(s0)
 354:	000017b7          	lui	a5,0x1
 358:	2f778793          	add	a5,a5,759 # 12f7 <usiBubbleSort+0xd43>
 35c:	faf41123          	sh	a5,-94(s0)
 360:	ffff87b7          	lui	a5,0xffff8
 364:	74578793          	add	a5,a5,1861 # ffff8745 <memory_size+0xdfff8745>
 368:	faf41223          	sh	a5,-92(s0)
 36c:	ffff87b7          	lui	a5,0xffff8
 370:	28678793          	add	a5,a5,646 # ffff8286 <memory_size+0xdfff8286>
 374:	faf41323          	sh	a5,-90(s0)
 378:	000017b7          	lui	a5,0x1
 37c:	29678793          	add	a5,a5,662 # 1296 <usiBubbleSort+0xce2>
 380:	faf41423          	sh	a5,-88(s0)
 384:	000037b7          	lui	a5,0x3
 388:	45278793          	add	a5,a5,1106 # 3452 <__BSS_END__+0x352>
 38c:	faf41523          	sh	a5,-86(s0)
 390:	ffffe7b7          	lui	a5,0xffffe
 394:	3ff78793          	add	a5,a5,1023 # ffffe3ff <memory_size+0xdfffe3ff>
 398:	faf41623          	sh	a5,-84(s0)
 39c:	000027b7          	lui	a5,0x2
 3a0:	45678793          	add	a5,a5,1110 # 2456 <__SDATA_BEGIN__+0x452>
 3a4:	faf41723          	sh	a5,-82(s0)
 3a8:	000067b7          	lui	a5,0x6
 3ac:	72378793          	add	a5,a5,1827 # 6723 <__BSS_END__+0x3623>
 3b0:	faf41823          	sh	a5,-80(s0)
 3b4:	000077b7          	lui	a5,0x7
 3b8:	51078793          	add	a5,a5,1296 # 7510 <__BSS_END__+0x4410>
 3bc:	faf41923          	sh	a5,-78(s0)
 3c0:	00500793          	li	a5,5
 3c4:	faf41a23          	sh	a5,-76(s0)
 3c8:	fb840793          	add	a5,s0,-72
 3cc:	01500593          	li	a1,21
 3d0:	00078513          	mv	a0,a5
 3d4:	0e4000ef          	jal	4b8 <ssiBubbleSort>
 3d8:	f8c40793          	add	a5,s0,-116
 3dc:	01500593          	li	a1,21
 3e0:	00078513          	mv	a0,a5
 3e4:	1d0000ef          	jal	5b4 <usiBubbleSort>
 3e8:	fe042423          	sw	zero,-24(s0)
 3ec:	fe042623          	sw	zero,-20(s0)
 3f0:	0480006f          	j	438 <main+0x250>
 3f4:	fec42783          	lw	a5,-20(s0)
 3f8:	00179793          	sll	a5,a5,0x1
 3fc:	ff078793          	add	a5,a5,-16
 400:	008787b3          	add	a5,a5,s0
 404:	fc879703          	lh	a4,-56(a5)
 408:	fec42783          	lw	a5,-20(s0)
 40c:	00178793          	add	a5,a5,1
 410:	00179793          	sll	a5,a5,0x1
 414:	ff078793          	add	a5,a5,-16
 418:	008787b3          	add	a5,a5,s0
 41c:	fc879783          	lh	a5,-56(a5)
 420:	00e7d663          	bge	a5,a4,42c <main+0x244>
 424:	00100793          	li	a5,1
 428:	fef42423          	sw	a5,-24(s0)
 42c:	fec42783          	lw	a5,-20(s0)
 430:	00178793          	add	a5,a5,1
 434:	fef42623          	sw	a5,-20(s0)
 438:	fec42703          	lw	a4,-20(s0)
 43c:	01300793          	li	a5,19
 440:	fae7dae3          	bge	a5,a4,3f4 <main+0x20c>
 444:	fe042223          	sw	zero,-28(s0)
 448:	fe042623          	sw	zero,-20(s0)
 44c:	0480006f          	j	494 <main+0x2ac>
 450:	fec42783          	lw	a5,-20(s0)
 454:	00179793          	sll	a5,a5,0x1
 458:	ff078793          	add	a5,a5,-16
 45c:	008787b3          	add	a5,a5,s0
 460:	f9c7d703          	lhu	a4,-100(a5)
 464:	fec42783          	lw	a5,-20(s0)
 468:	00178793          	add	a5,a5,1
 46c:	00179793          	sll	a5,a5,0x1
 470:	ff078793          	add	a5,a5,-16
 474:	008787b3          	add	a5,a5,s0
 478:	f9c7d783          	lhu	a5,-100(a5)
 47c:	00e7f663          	bgeu	a5,a4,488 <main+0x2a0>
 480:	00100793          	li	a5,1
 484:	fef42223          	sw	a5,-28(s0)
 488:	fec42783          	lw	a5,-20(s0)
 48c:	00178793          	add	a5,a5,1
 490:	fef42623          	sw	a5,-20(s0)
 494:	fec42703          	lw	a4,-20(s0)
 498:	01300793          	li	a5,19
 49c:	fae7dae3          	bge	a5,a4,450 <main+0x268>
 4a0:	00000793          	li	a5,0
 4a4:	00078513          	mv	a0,a5
 4a8:	07c12083          	lw	ra,124(sp)
 4ac:	07812403          	lw	s0,120(sp)
 4b0:	08010113          	add	sp,sp,128
 4b4:	00008067          	ret

000004b8 <ssiBubbleSort>:
 4b8:	fd010113          	add	sp,sp,-48
 4bc:	02812623          	sw	s0,44(sp)
 4c0:	03010413          	add	s0,sp,48
 4c4:	fca42e23          	sw	a0,-36(s0)
 4c8:	fcb42c23          	sw	a1,-40(s0)
 4cc:	fd842783          	lw	a5,-40(s0)
 4d0:	fff78793          	add	a5,a5,-1
 4d4:	fef42623          	sw	a5,-20(s0)
 4d8:	0c00006f          	j	598 <ssiBubbleSort+0xe0>
 4dc:	fe042423          	sw	zero,-24(s0)
 4e0:	0a00006f          	j	580 <ssiBubbleSort+0xc8>
 4e4:	fe842783          	lw	a5,-24(s0)
 4e8:	00178793          	add	a5,a5,1
 4ec:	00179793          	sll	a5,a5,0x1
 4f0:	fdc42703          	lw	a4,-36(s0)
 4f4:	00f707b3          	add	a5,a4,a5
 4f8:	00079703          	lh	a4,0(a5)
 4fc:	fe842783          	lw	a5,-24(s0)
 500:	00179793          	sll	a5,a5,0x1
 504:	fdc42683          	lw	a3,-36(s0)
 508:	00f687b3          	add	a5,a3,a5
 50c:	00079783          	lh	a5,0(a5)
 510:	06f75263          	bge	a4,a5,574 <ssiBubbleSort+0xbc>
 514:	fe842783          	lw	a5,-24(s0)
 518:	00178793          	add	a5,a5,1
 51c:	00179793          	sll	a5,a5,0x1
 520:	fdc42703          	lw	a4,-36(s0)
 524:	00f707b3          	add	a5,a4,a5
 528:	0007d783          	lhu	a5,0(a5)
 52c:	fef41323          	sh	a5,-26(s0)
 530:	fe842783          	lw	a5,-24(s0)
 534:	00179793          	sll	a5,a5,0x1
 538:	fdc42703          	lw	a4,-36(s0)
 53c:	00f70733          	add	a4,a4,a5
 540:	fe842783          	lw	a5,-24(s0)
 544:	00178793          	add	a5,a5,1
 548:	00179793          	sll	a5,a5,0x1
 54c:	fdc42683          	lw	a3,-36(s0)
 550:	00f687b3          	add	a5,a3,a5
 554:	00071703          	lh	a4,0(a4)
 558:	00e79023          	sh	a4,0(a5)
 55c:	fe842783          	lw	a5,-24(s0)
 560:	00179793          	sll	a5,a5,0x1
 564:	fdc42703          	lw	a4,-36(s0)
 568:	00f707b3          	add	a5,a4,a5
 56c:	fe645703          	lhu	a4,-26(s0)
 570:	00e79023          	sh	a4,0(a5)
 574:	fe842783          	lw	a5,-24(s0)
 578:	00178793          	add	a5,a5,1
 57c:	fef42423          	sw	a5,-24(s0)
 580:	fe842703          	lw	a4,-24(s0)
 584:	fec42783          	lw	a5,-20(s0)
 588:	f4f74ee3          	blt	a4,a5,4e4 <ssiBubbleSort+0x2c>
 58c:	fec42783          	lw	a5,-20(s0)
 590:	fff78793          	add	a5,a5,-1
 594:	fef42623          	sw	a5,-20(s0)
 598:	fec42783          	lw	a5,-20(s0)
 59c:	f407d0e3          	bgez	a5,4dc <ssiBubbleSort+0x24>
 5a0:	00000013          	nop
 5a4:	00000013          	nop
 5a8:	02c12403          	lw	s0,44(sp)
 5ac:	03010113          	add	sp,sp,48
 5b0:	00008067          	ret

000005b4 <usiBubbleSort>:
 5b4:	fd010113          	add	sp,sp,-48
 5b8:	02812623          	sw	s0,44(sp)
 5bc:	03010413          	add	s0,sp,48
 5c0:	fca42e23          	sw	a0,-36(s0)
 5c4:	fcb42c23          	sw	a1,-40(s0)
 5c8:	fd842783          	lw	a5,-40(s0)
 5cc:	fff78793          	add	a5,a5,-1
 5d0:	fef42623          	sw	a5,-20(s0)
 5d4:	0c00006f          	j	694 <usiBubbleSort+0xe0>
 5d8:	fe042423          	sw	zero,-24(s0)
 5dc:	0a00006f          	j	67c <usiBubbleSort+0xc8>
 5e0:	fe842783          	lw	a5,-24(s0)
 5e4:	00178793          	add	a5,a5,1
 5e8:	00179793          	sll	a5,a5,0x1
 5ec:	fdc42703          	lw	a4,-36(s0)
 5f0:	00f707b3          	add	a5,a4,a5
 5f4:	0007d703          	lhu	a4,0(a5)
 5f8:	fe842783          	lw	a5,-24(s0)
 5fc:	00179793          	sll	a5,a5,0x1
 600:	fdc42683          	lw	a3,-36(s0)
 604:	00f687b3          	add	a5,a3,a5
 608:	0007d783          	lhu	a5,0(a5)
 60c:	06f77263          	bgeu	a4,a5,670 <usiBubbleSort+0xbc>
 610:	fe842783          	lw	a5,-24(s0)
 614:	00178793          	add	a5,a5,1
 618:	00179793          	sll	a5,a5,0x1
 61c:	fdc42703          	lw	a4,-36(s0)
 620:	00f707b3          	add	a5,a4,a5
 624:	0007d783          	lhu	a5,0(a5)
 628:	fef41323          	sh	a5,-26(s0)
 62c:	fe842783          	lw	a5,-24(s0)
 630:	00179793          	sll	a5,a5,0x1
 634:	fdc42703          	lw	a4,-36(s0)
 638:	00f70733          	add	a4,a4,a5
 63c:	fe842783          	lw	a5,-24(s0)
 640:	00178793          	add	a5,a5,1
 644:	00179793          	sll	a5,a5,0x1
 648:	fdc42683          	lw	a3,-36(s0)
 64c:	00f687b3          	add	a5,a3,a5
 650:	00075703          	lhu	a4,0(a4)
 654:	00e79023          	sh	a4,0(a5)
 658:	fe842783          	lw	a5,-24(s0)
 65c:	00179793          	sll	a5,a5,0x1
 660:	fdc42703          	lw	a4,-36(s0)
 664:	00f707b3          	add	a5,a4,a5
 668:	fe645703          	lhu	a4,-26(s0)
 66c:	00e79023          	sh	a4,0(a5)
 670:	fe842783          	lw	a5,-24(s0)
 674:	00178793          	add	a5,a5,1
 678:	fef42423          	sw	a5,-24(s0)
 67c:	fe842703          	lw	a4,-24(s0)
 680:	fec42783          	lw	a5,-20(s0)
 684:	f4f74ee3          	blt	a4,a5,5e0 <usiBubbleSort+0x2c>
 688:	fec42783          	lw	a5,-20(s0)
 68c:	fff78793          	add	a5,a5,-1
 690:	fef42623          	sw	a5,-20(s0)
 694:	fec42783          	lw	a5,-20(s0)
 698:	f407d0e3          	bgez	a5,5d8 <usiBubbleSort+0x24>
 69c:	00000013          	nop
 6a0:	00000013          	nop
 6a4:	02c12403          	lw	s0,44(sp)
 6a8:	03010113          	add	sp,sp,48
 6ac:	00008067          	ret
